-----BEGIN CERTIFICATE-----
MIIDzzCCAregAwIBAgIJAPJgZpghday9MA0GCSqGSIb3DQEBCwUAMH4xCzAJBgNV
BAYTAklMMQ8wDQYDVQQIDAZpc3JhZWwxEjAQBgNVBAcMCUplcnVzYWxlbTEQMA4G
A1UECgwHTmV0RnJlZTEVMBMGA1UECwwMbmV0ZnJlZS5saW5rMSEwHwYDVQQDDBhO
ZXRGcmVlIFNpZ24gLCBIYWRyYW5WcG4wHhcNMTcwMzMwMDEwNDAwWhcNMjcwMjA2
MDEwNDAwWjB+MQswCQYDVQQGEwJJTDEPMA0GA1UECAwGaXNyYWVsMRIwEAYDVQQH
DAlKZXJ1c2FsZW0xEDAOBgNVBAoMB05ldEZyZWUxFTATBgNVBAsMDG5ldGZyZWUu
bGluazEhMB8GA1UEAwwYTmV0RnJlZSBTaWduICwgSGFkcmFuVnBuMIIBIjANBgkq
hkiG9w0BAQEFAAOCAQ8AMIIBCgKCAQEApRXoigVenMeP9PGM9zt/TDo60AwOrjAS
a2zSgR21Hy9IoJGdR57eZKMKvGirzsgTrzjZl/G92FPppx1hKyZjP1IHES0kzG74
yK4JtRGC1T4GYutAHM1ZDv7ZoUnGxsEo5or6CFhR+D/zJ5fiiACFypIICb6qUynk
aaSamw1JTKLNUCrs6eArJnThBJP+Czi45uM/mdrB5jnajLvRnFgeqcPp6913zKUy
4FsHPm5U26kincnRV/04UB4Xx/f3LHv9L9Ao1aViDbZlHverU0ETCEALHWqnfjX/
uSk/zRXZRzDRPCGIdVXuxiYINjCzA4+ZRrdc+qhlpuzn9ct7phi3ewIDAQABo1Aw
TjAdBgNVHQ4EFgQU3C1v4yi0aNBn4CzFWEnQl2Lcl94wHwYDVR0jBBgwFoAU3C1v
4yi0aNBn4CzFWEnQl2Lcl94wDAYDVR0TBAUwAwEB/zANBgkqhkiG9w0BAQsFAAOC
AQEAeHISptZ4rtfTGej48OV5o5q/Z5XmU8G4qnkWX4AfqIl3SOfPc6UzHBE+gYyw
zhBfvhW+MMHJaBh0LfswRfbuP3nkOQNvzVSIRyvmYqklZTTSQ1J5AsgB39C1LYWB
c79cyYZH3EUU+bdXgBlIxTixpOm+eqoxQlIoAMjmOjQMvOKFsZJcj0XUdULfxC2C
PbMkCJ6JB5Dr19NZxsQyEE+GhLiPJDtGcjzfHMZwUDMe1qWKAnPR5P9xZegm50HI
ogmnZGL6nfpts5yqeHaQunCKQarUbvY7Sp89wI1J+ntVHVnO9VxubHqWj+1nwlna
SBAWwK8ruKyu6mDloyilV6c4+g==
-----END CERTIFICATE-----
Certificate:
    Data:
        Version: 3 (0x2)
        Serial Number:
            f2:60:66:98:21:75:ac:bd
        Signature Algorithm: sha256WithRSAEncryption
        Issuer: C = IL, ST = israel, L = Jerusalem, O = NetFree, OU = netfree.link, CN = "NetFree Sign , HadranVpn"
        Validity
            Not Before: Mar 30 01:04:00 2017 GMT
            Not After : Feb  6 01:04:00 2027 GMT
        Subject: C = IL, ST = israel, L = Jerusalem, O = NetFree, OU = netfree.link, CN = "NetFree Sign , HadranVpn"
        Subject Public Key Info:
            Public Key Algorithm: rsaEncryption
                RSA Public-Key: (2048 bit)
                Modulus:
                    00:a5:15:e8:8a:05:5e:9c:c7:8f:f4:f1:8c:f7:3b:
                    7f:4c:3a:3a:d0:0c:0e:ae:30:12:6b:6c:d2:81:1d:
                    b5:1f:2f:48:a0:91:9d:47:9e:de:64:a3:0a:bc:68:
                    ab:ce:c8:13:af:38:d9:97:f1:bd:d8:53:e9:a7:1d:
                    61:2b:26:63:3f:52:07:11:2d:24:cc:6e:f8:c8:ae:
                    09:b5:11:82:d5:3e:06:62:eb:40:1c:cd:59:0e:fe:
                    d9:a1:49:c6:c6:c1:28:e6:8a:fa:08:58:51:f8:3f:
                    f3:27:97:e2:88:00:85:ca:92:08:09:be:aa:53:29:
                    e4:69:a4:9a:9b:0d:49:4c:a2:cd:50:2a:ec:e9:e0:
                    2b:26:74:e1:04:93:fe:0b:38:b8:e6:e3:3f:99:da:
                    c1:e6:39:da:8c:bb:d1:9c:58:1e:a9:c3:e9:eb:dd:
                    77:cc:a5:32:e0:5b:07:3e:6e:54:db:a9:22:9d:c9:
                    d1:57:fd:38:50:1e:17:c7:f7:f7:2c:7b:fd:2f:d0:
                    28:d5:a5:62:0d:b6:65:1e:f7:ab:53:41:13:08:40:
                    0b:1d:6a:a7:7e:35:ff:b9:29:3f:cd:15:d9:47:30:
                    d1:3c:21:88:75:55:ee:c6:26:08:36:30:b3:03:8f:
                    99:46:b7:5c:fa:a8:65:a6:ec:e7:f5:cb:7b:a6:18:
                    b7:7b
                Exponent: 65537 (0x10001)
        X509v3 extensions:
            X509v3 Subject Key Identifier: 
                DC:2D:6F:E3:28:B4:68:D0:67:E0:2C:C5:58:49:D0:97:62:DC:97:DE
            X509v3 Authority Key Identifier: 
                keyid:DC:2D:6F:E3:28:B4:68:D0:67:E0:2C:C5:58:49:D0:97:62:DC:97:DE

            X509v3 Basic Constraints: 
                CA:TRUE
    Signature Algorithm: sha256WithRSAEncryption
         78:72:12:a6:d6:78:ae:d7:d3:19:e8:f8:f0:e5:79:a3:9a:bf:
         67:95:e6:53:c1:b8:aa:79:16:5f:80:1f:a8:89:77:48:e7:cf:
         73:a5:33:1c:11:3e:81:8c:b0:ce:10:5f:be:15:be:30:c1:c9:
         68:18:74:2d:fb:30:45:f6:ee:3f:79:e4:39:03:6f:cd:54:88:
         47:2b:e6:62:a9:25:65:34:d2:43:52:79:02:c8:01:df:d0:b5:
         2d:85:81:73:bf:5c:c9:86:47:dc:45:14:f9:b7:57:80:19:48:
         c5:38:b1:a4:e9:be:7a:aa:31:42:52:28:00:c8:e6:3a:34:0c:
         bc:e2:85:b1:92:5c:8f:45:d4:75:42:df:c4:2d:82:3d:b3:24:
         08:9e:89:07:90:eb:d7:d3:59:c6:c4:32:10:4f:86:84:b8:8f:
         24:3b:46:72:3c:df:1c:c6:70:50:33:1e:d6:a5:8a:02:73:d1:
         e4:ff:71:65:e8:26:e7:41:c8:a2:09:a7:64:62:fa:9d:fa:6d:
         b3:9c:aa:78:76:90:ba:70:8a:41:aa:d4:6e:f6:3b:4a:9f:3d:
         c0:8d:49:fa:7b:55:1d:59:ce:f5:5c:6e:6c:7a:96:8f:ed:67:
         c2:59:da:48:10:16:c0:af:2b:b8:ac:ae:ea:60:e5:a3:28:a5:
         57:a7:38:fa
