-----BEGIN CERTIFICATE-----
MIID1zCCAr+gAwIBAgIJAIdzf+9gLmi5MA0GCSqGSIb3DQEBCwUAMIGBMQswCQYD
VQQGEwJJTDEPMA0GA1UECAwGaXNyYWVsMRIwEAYDVQQHDAlKZXJ1c2FsZW0xEDAO
BgNVBAoMB05ldEZyZWUxFTATBgNVBAsMDG5ldGZyZWUubGluazEkMCIGA1UEAwwb
TmV0RnJlZSBTaWduLCBLb3NoZXJTSU0gSVRDMB4XDTE4MDQyMjE2MzMxMloXDTI4
MDIyOTE2MzMxMlowgYExCzAJBgNVBAYTAklMMQ8wDQYDVQQIDAZpc3JhZWwxEjAQ
BgNVBAcMCUplcnVzYWxlbTEQMA4GA1UECgwHTmV0RnJlZTEVMBMGA1UECwwMbmV0
ZnJlZS5saW5rMSQwIgYDVQQDDBtOZXRGcmVlIFNpZ24sIEtvc2hlclNJTSBJVEMw
ggEiMA0GCSqGSIb3DQEBAQUAA4IBDwAwggEKAoIBAQDP4S4XapIOvQv5wWbfBzg2
2fY1pWs030zMEOCVvnxMr9Fp1tgs/AVMY+UzkmawwbVDxZQL3goR7RqHPKkvsWXo
TEM1DOBajU9l3JRd8djnIMMG0u8wDXzFcVmno/Mh5fCXvhAr9Dd11KokYQKcn5wT
uDhJEhyEqB8Ho8BNvTyRts/HrkdJiSFEaSpr2J9BM/v9dIzINfBg/hxy7Em9B0pd
wgnKr6Bz0esC10hCYphjzaKpd/23jvfZHZKq4oFSaFzhzC5pbg4cSPCxRUN7kzxs
ezRhSoHhzMBXn4ay+VKhBKlKUOxT3STyxPFMYx6s40qlhlmaZ1tN4hLQrwD1jLw7
AgMBAAGjUDBOMB0GA1UdDgQWBBSPs38ZeH74K6wWVOIaW6P5ePY71zAfBgNVHSME
GDAWgBSPs38ZeH74K6wWVOIaW6P5ePY71zAMBgNVHRMEBTADAQH/MA0GCSqGSIb3
DQEBCwUAA4IBAQAcreRYyYYW+7gfAyxfv+AXV2NDlHMuQ6/gS13JgsObnoDcxhT1
cSbnAwbhvWXq7uAlD8Kbxp5uNZIt8N5ykqi4qjUXXuBMAZS75Rc9XDmmryBTfC+i
fql/2G6Itcj0VaoQK9gbnMumHqdK4wiIJHy4Wx2+b+3CeznwwWz5TWxBJmAqVPCN
hiu72Bh+W9wA2xuP65/FcKLpOpROQqUUT0vJd8UT46HMy7X2CXjB/ZWskGYn1V8Z
0aEvSW9FQDJllAXnTOLbXqHmY8/bdLraAL7Z7bJYLUxBcVOUe8+B+QN919kJOfk+
AYoB1o77qk3kH7jKxxPAH5G7SP2aYtylqb45
-----END CERTIFICATE-----
Certificate:
    Data:
        Version: 3 (0x2)
        Serial Number:
            87:73:7f:ef:60:2e:68:b9
        Signature Algorithm: sha256WithRSAEncryption
        Issuer: C = IL, ST = israel, L = Jerusalem, O = NetFree, OU = netfree.link, CN = "NetFree Sign, KosherSIM ITC"
        Validity
            Not Before: Apr 22 16:33:12 2018 GMT
            Not After : Feb 29 16:33:12 2028 GMT
        Subject: C = IL, ST = israel, L = Jerusalem, O = NetFree, OU = netfree.link, CN = "NetFree Sign, KosherSIM ITC"
        Subject Public Key Info:
            Public Key Algorithm: rsaEncryption
                RSA Public-Key: (2048 bit)
                Modulus:
                    00:cf:e1:2e:17:6a:92:0e:bd:0b:f9:c1:66:df:07:
                    38:36:d9:f6:35:a5:6b:34:df:4c:cc:10:e0:95:be:
                    7c:4c:af:d1:69:d6:d8:2c:fc:05:4c:63:e5:33:92:
                    66:b0:c1:b5:43:c5:94:0b:de:0a:11:ed:1a:87:3c:
                    a9:2f:b1:65:e8:4c:43:35:0c:e0:5a:8d:4f:65:dc:
                    94:5d:f1:d8:e7:20:c3:06:d2:ef:30:0d:7c:c5:71:
                    59:a7:a3:f3:21:e5:f0:97:be:10:2b:f4:37:75:d4:
                    aa:24:61:02:9c:9f:9c:13:b8:38:49:12:1c:84:a8:
                    1f:07:a3:c0:4d:bd:3c:91:b6:cf:c7:ae:47:49:89:
                    21:44:69:2a:6b:d8:9f:41:33:fb:fd:74:8c:c8:35:
                    f0:60:fe:1c:72:ec:49:bd:07:4a:5d:c2:09:ca:af:
                    a0:73:d1:eb:02:d7:48:42:62:98:63:cd:a2:a9:77:
                    fd:b7:8e:f7:d9:1d:92:aa:e2:81:52:68:5c:e1:cc:
                    2e:69:6e:0e:1c:48:f0:b1:45:43:7b:93:3c:6c:7b:
                    34:61:4a:81:e1:cc:c0:57:9f:86:b2:f9:52:a1:04:
                    a9:4a:50:ec:53:dd:24:f2:c4:f1:4c:63:1e:ac:e3:
                    4a:a5:86:59:9a:67:5b:4d:e2:12:d0:af:00:f5:8c:
                    bc:3b
                Exponent: 65537 (0x10001)
        X509v3 extensions:
            X509v3 Subject Key Identifier: 
                8F:B3:7F:19:78:7E:F8:2B:AC:16:54:E2:1A:5B:A3:F9:78:F6:3B:D7
            X509v3 Authority Key Identifier: 
                keyid:8F:B3:7F:19:78:7E:F8:2B:AC:16:54:E2:1A:5B:A3:F9:78:F6:3B:D7

            X509v3 Basic Constraints: 
                CA:TRUE
    Signature Algorithm: sha256WithRSAEncryption
         1c:ad:e4:58:c9:86:16:fb:b8:1f:03:2c:5f:bf:e0:17:57:63:
         43:94:73:2e:43:af:e0:4b:5d:c9:82:c3:9b:9e:80:dc:c6:14:
         f5:71:26:e7:03:06:e1:bd:65:ea:ee:e0:25:0f:c2:9b:c6:9e:
         6e:35:92:2d:f0:de:72:92:a8:b8:aa:35:17:5e:e0:4c:01:94:
         bb:e5:17:3d:5c:39:a6:af:20:53:7c:2f:a2:7e:a9:7f:d8:6e:
         88:b5:c8:f4:55:aa:10:2b:d8:1b:9c:cb:a6:1e:a7:4a:e3:08:
         88:24:7c:b8:5b:1d:be:6f:ed:c2:7b:39:f0:c1:6c:f9:4d:6c:
         41:26:60:2a:54:f0:8d:86:2b:bb:d8:18:7e:5b:dc:00:db:1b:
         8f:eb:9f:c5:70:a2:e9:3a:94:4e:42:a5:14:4f:4b:c9:77:c5:
         13:e3:a1:cc:cb:b5:f6:09:78:c1:fd:95:ac:90:66:27:d5:5f:
         19:d1:a1:2f:49:6f:45:40:32:65:94:05:e7:4c:e2:db:5e:a1:
         e6:63:cf:db:74:ba:da:00:be:d9:ed:b2:58:2d:4c:41:71:53:
         94:7b:cf:81:f9:03:7d:d7:d9:09:39:f9:3e:01:8a:01:d6:8e:
         fb:aa:4d:e4:1f:b8:ca:c7:13:c0:1f:91:bb:48:fd:9a:62:dc:
         a5:a9:be:39
