-----BEGIN CERTIFICATE-----
MIIFzzCCA7egAwIBAgIUEwVOrPcQ9DVIGMi4qkZrs70iQnowDQYJKoZIhvcNAQEL
BQAwdzELMAkGA1UEBhMCSUwxDzANBgNVBAgMBmlzcmFlbDESMBAGA1UEBwwJSmVy
dXNhbGVtMRAwDgYDVQQKDAdOZXRGcmVlMRUwEwYDVQQLDAxuZXRmcmVlLmxpbmsx
GjAYBgNVBAMMEU5ldEZyZWUgU2lnbiwgSVRDMB4XDTIxMDQxNDE3NTE1M1oXDTMx
MDQxMjE3NTE1M1owdzELMAkGA1UEBhMCSUwxDzANBgNVBAgMBmlzcmFlbDESMBAG
A1UEBwwJSmVydXNhbGVtMRAwDgYDVQQKDAdOZXRGcmVlMRUwEwYDVQQLDAxuZXRm
cmVlLmxpbmsxGjAYBgNVBAMMEU5ldEZyZWUgU2lnbiwgSVRDMIICIjANBgkqhkiG
9w0BAQEFAAOCAg8AMIICCgKCAgEAwncsxkaH7L3LnDC3P6gVbqwWc5ieLHnKtgk8
AHsHQVuzFbKJikfA5FFdZQoCslPBR83pwzTi2wrnFKzApDdLBrB8NgbAzhimQ0gd
miRe4GdC8/W5WDu97+JnI+AGFGrbJxCzBfxc7hYC/0gTp9y8jWO9241OxuhYjlUf
7fXHqIlXKlz+h/0PPhop82yv5AeMolyGaQ5LnyuDCGZsS1VG+KiMhxQO9rB5pUAr
qHwAJ3UzGqXoMphSyoBYpvNG4R6MGOTvDgSVOZ8CJRbI4Y4/2XRpmXKC4EsKObR5
OVqm+iCSxX23DCWg/RBEClB6CAadkEFWXtOATtiCP/pPEGywOxFU82ENV/2MEm/w
/HMTLoBiKA8lnq8z1KcPzZ1w8oZk/N+Y/wibuPz+qQJPIW5OiXvNcq2QiVck843v
nZjEEd5GEx5FHAiPe71QBKq55Teb4G2/PeO5v26tUc9z1Nl7AQS7equ/XW3Xe5IT
+HP+VIq/x0hN9fpAbOwL7vnIZO4oMWR5wVXqo8B2vCd+XtHQXeYldzaggTtc026Q
cm/YHaIrexShAWKmfU5MfrGTOrfEgi11aJQTNDZzlR3eodMCkRJmV1wm8LjuJSyz
CVas2kLCAQ0LoT4c1Vp8SC2/5FGZNQ9SHhiqzDESNt9efqr4CF7/1MgTGXASunoH
UBp3KccCAwEAAaNTMFEwHQYDVR0OBBYEFN7AZUcFTTIew+Sve7rVPacztLA/MB8G
A1UdIwQYMBaAFN7AZUcFTTIew+Sve7rVPacztLA/MA8GA1UdEwEB/wQFMAMBAf8w
DQYJKoZIhvcNAQELBQADggIBAKf+3/4Adi0mslhs8N/JONbRaord4GBpqRtQ9OXV
pgyF7f7S/rBFnTcBbyqCSu0EitrDIAZ81rmJ8Cx0ae827v0fkRKwmtIl/G0QgUzd
4uVPe3UuALBjqedhVrfnNGZQvb1jbeTJ9R1u7V95au32fZk+1gHc69eA2NZgQ2kk
sazKnC8Urca3CgmVuuE8EeYcChRCWQ8qiCVKicm9g0tfwdLGIJMsQJPi7lXBmdlI
Gex5ADiNk3G5dIKVt3BqG9KYXBN9mw6RK7LIMGPJR20ydRy5vxPazKQXHaVWnvfU
4Gg7xgjNygMFYuflt6kPfek3HdIo5CASLwzz86dhwqdp0Wun8KMx3wfXu9IArL2p
AkT7z1d3zZWiaaXZ+JSUNcmC8560PVUE3Ygdkpi5AKBkLizmKt7ZuSU4LZvlcl7x
kvu2ZoAFyXh6LOL+UduLCzXVpCKh9rz1cnRkcqbkfdk3pSs+Z6HXT4aZriRqRNR4
0zaIjLLR93s7rlohRmXUu7uxG0wk6K88H4f8n6IHgZHZCeizY2s7rW6ZMsjuHM4T
8PrEdYR68VKJ4kSpBRyTxlUT4CZzfRaaViEhN52JSSxXUcfpOphO1tDavyeUAR8r
1+Prire6Y6/A0U5mr9gssB2HtBw69FUC6O//foeoc9JLO08dCuDznHs+UtH06hws
NA54
-----END CERTIFICATE-----
Certificate:
    Data:
        Version: 3 (0x2)
        Serial Number:
            13:05:4e:ac:f7:10:f4:35:48:18:c8:b8:aa:46:6b:b3:bd:22:42:7a
        Signature Algorithm: sha256WithRSAEncryption
        Issuer: C = IL, ST = israel, L = Jerusalem, O = NetFree, OU = netfree.link, CN = "NetFree Sign, ITC"
        Validity
            Not Before: Apr 14 17:51:53 2021 GMT
            Not After : Apr 12 17:51:53 2031 GMT
        Subject: C = IL, ST = israel, L = Jerusalem, O = NetFree, OU = netfree.link, CN = "NetFree Sign, ITC"
        Subject Public Key Info:
            Public Key Algorithm: rsaEncryption
                RSA Public-Key: (4096 bit)
                Modulus:
                    00:c2:77:2c:c6:46:87:ec:bd:cb:9c:30:b7:3f:a8:
                    15:6e:ac:16:73:98:9e:2c:79:ca:b6:09:3c:00:7b:
                    07:41:5b:b3:15:b2:89:8a:47:c0:e4:51:5d:65:0a:
                    02:b2:53:c1:47:cd:e9:c3:34:e2:db:0a:e7:14:ac:
                    c0:a4:37:4b:06:b0:7c:36:06:c0:ce:18:a6:43:48:
                    1d:9a:24:5e:e0:67:42:f3:f5:b9:58:3b:bd:ef:e2:
                    67:23:e0:06:14:6a:db:27:10:b3:05:fc:5c:ee:16:
                    02:ff:48:13:a7:dc:bc:8d:63:bd:db:8d:4e:c6:e8:
                    58:8e:55:1f:ed:f5:c7:a8:89:57:2a:5c:fe:87:fd:
                    0f:3e:1a:29:f3:6c:af:e4:07:8c:a2:5c:86:69:0e:
                    4b:9f:2b:83:08:66:6c:4b:55:46:f8:a8:8c:87:14:
                    0e:f6:b0:79:a5:40:2b:a8:7c:00:27:75:33:1a:a5:
                    e8:32:98:52:ca:80:58:a6:f3:46:e1:1e:8c:18:e4:
                    ef:0e:04:95:39:9f:02:25:16:c8:e1:8e:3f:d9:74:
                    69:99:72:82:e0:4b:0a:39:b4:79:39:5a:a6:fa:20:
                    92:c5:7d:b7:0c:25:a0:fd:10:44:0a:50:7a:08:06:
                    9d:90:41:56:5e:d3:80:4e:d8:82:3f:fa:4f:10:6c:
                    b0:3b:11:54:f3:61:0d:57:fd:8c:12:6f:f0:fc:73:
                    13:2e:80:62:28:0f:25:9e:af:33:d4:a7:0f:cd:9d:
                    70:f2:86:64:fc:df:98:ff:08:9b:b8:fc:fe:a9:02:
                    4f:21:6e:4e:89:7b:cd:72:ad:90:89:57:24:f3:8d:
                    ef:9d:98:c4:11:de:46:13:1e:45:1c:08:8f:7b:bd:
                    50:04:aa:b9:e5:37:9b:e0:6d:bf:3d:e3:b9:bf:6e:
                    ad:51:cf:73:d4:d9:7b:01:04:bb:7a:ab:bf:5d:6d:
                    d7:7b:92:13:f8:73:fe:54:8a:bf:c7:48:4d:f5:fa:
                    40:6c:ec:0b:ee:f9:c8:64:ee:28:31:64:79:c1:55:
                    ea:a3:c0:76:bc:27:7e:5e:d1:d0:5d:e6:25:77:36:
                    a0:81:3b:5c:d3:6e:90:72:6f:d8:1d:a2:2b:7b:14:
                    a1:01:62:a6:7d:4e:4c:7e:b1:93:3a:b7:c4:82:2d:
                    75:68:94:13:34:36:73:95:1d:de:a1:d3:02:91:12:
                    66:57:5c:26:f0:b8:ee:25:2c:b3:09:56:ac:da:42:
                    c2:01:0d:0b:a1:3e:1c:d5:5a:7c:48:2d:bf:e4:51:
                    99:35:0f:52:1e:18:aa:cc:31:12:36:df:5e:7e:aa:
                    f8:08:5e:ff:d4:c8:13:19:70:12:ba:7a:07:50:1a:
                    77:29:c7
                Exponent: 65537 (0x10001)
        X509v3 extensions:
            X509v3 Subject Key Identifier: 
                DE:C0:65:47:05:4D:32:1E:C3:E4:AF:7B:BA:D5:3D:A7:33:B4:B0:3F
            X509v3 Authority Key Identifier: 
                keyid:DE:C0:65:47:05:4D:32:1E:C3:E4:AF:7B:BA:D5:3D:A7:33:B4:B0:3F

            X509v3 Basic Constraints: critical
                CA:TRUE
    Signature Algorithm: sha256WithRSAEncryption
         a7:fe:df:fe:00:76:2d:26:b2:58:6c:f0:df:c9:38:d6:d1:6a:
         8a:dd:e0:60:69:a9:1b:50:f4:e5:d5:a6:0c:85:ed:fe:d2:fe:
         b0:45:9d:37:01:6f:2a:82:4a:ed:04:8a:da:c3:20:06:7c:d6:
         b9:89:f0:2c:74:69:ef:36:ee:fd:1f:91:12:b0:9a:d2:25:fc:
         6d:10:81:4c:dd:e2:e5:4f:7b:75:2e:00:b0:63:a9:e7:61:56:
         b7:e7:34:66:50:bd:bd:63:6d:e4:c9:f5:1d:6e:ed:5f:79:6a:
         ed:f6:7d:99:3e:d6:01:dc:eb:d7:80:d8:d6:60:43:69:24:b1:
         ac:ca:9c:2f:14:ad:c6:b7:0a:09:95:ba:e1:3c:11:e6:1c:0a:
         14:42:59:0f:2a:88:25:4a:89:c9:bd:83:4b:5f:c1:d2:c6:20:
         93:2c:40:93:e2:ee:55:c1:99:d9:48:19:ec:79:00:38:8d:93:
         71:b9:74:82:95:b7:70:6a:1b:d2:98:5c:13:7d:9b:0e:91:2b:
         b2:c8:30:63:c9:47:6d:32:75:1c:b9:bf:13:da:cc:a4:17:1d:
         a5:56:9e:f7:d4:e0:68:3b:c6:08:cd:ca:03:05:62:e7:e5:b7:
         a9:0f:7d:e9:37:1d:d2:28:e4:20:12:2f:0c:f3:f3:a7:61:c2:
         a7:69:d1:6b:a7:f0:a3:31:df:07:d7:bb:d2:00:ac:bd:a9:02:
         44:fb:cf:57:77:cd:95:a2:69:a5:d9:f8:94:94:35:c9:82:f3:
         9e:b4:3d:55:04:dd:88:1d:92:98:b9:00:a0:64:2e:2c:e6:2a:
         de:d9:b9:25:38:2d:9b:e5:72:5e:f1:92:fb:b6:66:80:05:c9:
         78:7a:2c:e2:fe:51:db:8b:0b:35:d5:a4:22:a1:f6:bc:f5:72:
         74:64:72:a6:e4:7d:d9:37:a5:2b:3e:67:a1:d7:4f:86:99:ae:
         24:6a:44:d4:78:d3:36:88:8c:b2:d1:f7:7b:3b:ae:5a:21:46:
         65:d4:bb:bb:b1:1b:4c:24:e8:af:3c:1f:87:fc:9f:a2:07:81:
         91:d9:09:e8:b3:63:6b:3b:ad:6e:99:32:c8:ee:1c:ce:13:f0:
         fa:c4:75:84:7a:f1:52:89:e2:44:a9:05:1c:93:c6:55:13:e0:
         26:73:7d:16:9a:56:21:21:37:9d:89:49:2c:57:51:c7:e9:3a:
         98:4e:d6:d0:da:bf:27:94:01:1f:2b:d7:e3:eb:8a:b7:ba:63:
         af:c0:d1:4e:66:af:d8:2c:b0:1d:87:b4:1c:3a:f4:55:02:e8:
         ef:ff:7e:87:a8:73:d2:4b:3b:4f:1d:0a:e0:f3:9c:7b:3e:52:
         d1:f4:ea:1c:2c:34:0e:78
