-----BEGIN CERTIFICATE-----
MIID4TCCAsmgAwIBAgIJAIsaro78xwDlMA0GCSqGSIb3DQEBCwUAMIGGMQswCQYD
VQQGEwJJTDEPMA0GA1UECAwGaXNyYWVsMRIwEAYDVQQHDAlKZXJ1c2FsZW0xEDAO
BgNVBAoMB05ldEZyZWUxFTATBgNVBAsMDG5ldGZyZWUubGluazEpMCcGA1UEAwwg
TmV0RnJlZSBTaWduICwgS29zaGVyU2ltIENlbGxjb20wHhcNMTcwMjA5MTYzNzIz
WhcNMjYxMjE5MTYzNzIzWjCBhjELMAkGA1UEBhMCSUwxDzANBgNVBAgMBmlzcmFl
bDESMBAGA1UEBwwJSmVydXNhbGVtMRAwDgYDVQQKDAdOZXRGcmVlMRUwEwYDVQQL
DAxuZXRmcmVlLmxpbmsxKTAnBgNVBAMMIE5ldEZyZWUgU2lnbiAsIEtvc2hlclNp
bSBDZWxsY29tMIIBIjANBgkqhkiG9w0BAQEFAAOCAQ8AMIIBCgKCAQEAsGzn8/an
SokAGXPd8XvBEyNCEby+4MQNa/osraC7ORKNk3C42b0cfPhf8pUpj66L69EcgmhS
veZyrZYlDGnUh7/2faF0EwtxffN1UK5qzEFfd2YICHXl81pVvifbmZgB3/c64KFm
+2CsyWZ2XTGPzD9zIrJdHFGgHdVu/UDDj0oLU2G0v0npse7au/gKNSxx1StzP3N6
uOo6Ih3KB74FCF0hc2aiJpfE9ECinSeHHF39TMzEJNvC4+fuTOb1odYsNP83otp7
KbLjCQsCMomxQlQTy3vfTvCA8f2BSILo4U6j/BHyhZriyjvhnPTlonWBrLHU5bd+
HNeiIeucPgRz+QIDAQABo1AwTjAdBgNVHQ4EFgQUf3PgrlRBo19oBK4M47swRdXg
pAQwHwYDVR0jBBgwFoAUf3PgrlRBo19oBK4M47swRdXgpAQwDAYDVR0TBAUwAwEB
/zANBgkqhkiG9w0BAQsFAAOCAQEAUIdlD+x9CFJXvKgmW6FAuAV3w6JG8zz4MwQO
5aXbs3g8ioIJ6KUBmtzcQhM/NLVr/oXIXPZxXWI7tP3f5N3iLVwrh6krKOU+jSna
HXK0BYXPivp8rRJX56gUQqLUlS94l3iAHX8N+qY2D0hSj4H044R5mWsuYxrtdAr2
glaz6luXOo+NMH2uRnWYX/uAAEpbQLPlztVsoV4LsZ2C54dK7neQ+A6qRL/IZwJE
bYeRwWYoK7OY/BNLj/Vx25IzZYlU/lP8qa6UcUWmPeyIPJqPvjdO95zEodX2iuWE
cuc5pUqSu5/xxosDx3vWpFhPaU5gq9WEN5uPgFd96yHoFKWvtg==
-----END CERTIFICATE-----
Certificate:
    Data:
        Version: 3 (0x2)
        Serial Number:
            8b:1a:ae:8e:fc:c7:00:e5
        Signature Algorithm: sha256WithRSAEncryption
        Issuer: C = IL, ST = israel, L = Jerusalem, O = NetFree, OU = netfree.link, CN = "NetFree Sign , KosherSim Cellcom"
        Validity
            Not Before: Feb  9 16:37:23 2017 GMT
            Not After : Dec 19 16:37:23 2026 GMT
        Subject: C = IL, ST = israel, L = Jerusalem, O = NetFree, OU = netfree.link, CN = "NetFree Sign , KosherSim Cellcom"
        Subject Public Key Info:
            Public Key Algorithm: rsaEncryption
                RSA Public-Key: (2048 bit)
                Modulus:
                    00:b0:6c:e7:f3:f6:a7:4a:89:00:19:73:dd:f1:7b:
                    c1:13:23:42:11:bc:be:e0:c4:0d:6b:fa:2c:ad:a0:
                    bb:39:12:8d:93:70:b8:d9:bd:1c:7c:f8:5f:f2:95:
                    29:8f:ae:8b:eb:d1:1c:82:68:52:bd:e6:72:ad:96:
                    25:0c:69:d4:87:bf:f6:7d:a1:74:13:0b:71:7d:f3:
                    75:50:ae:6a:cc:41:5f:77:66:08:08:75:e5:f3:5a:
                    55:be:27:db:99:98:01:df:f7:3a:e0:a1:66:fb:60:
                    ac:c9:66:76:5d:31:8f:cc:3f:73:22:b2:5d:1c:51:
                    a0:1d:d5:6e:fd:40:c3:8f:4a:0b:53:61:b4:bf:49:
                    e9:b1:ee:da:bb:f8:0a:35:2c:71:d5:2b:73:3f:73:
                    7a:b8:ea:3a:22:1d:ca:07:be:05:08:5d:21:73:66:
                    a2:26:97:c4:f4:40:a2:9d:27:87:1c:5d:fd:4c:cc:
                    c4:24:db:c2:e3:e7:ee:4c:e6:f5:a1:d6:2c:34:ff:
                    37:a2:da:7b:29:b2:e3:09:0b:02:32:89:b1:42:54:
                    13:cb:7b:df:4e:f0:80:f1:fd:81:48:82:e8:e1:4e:
                    a3:fc:11:f2:85:9a:e2:ca:3b:e1:9c:f4:e5:a2:75:
                    81:ac:b1:d4:e5:b7:7e:1c:d7:a2:21:eb:9c:3e:04:
                    73:f9
                Exponent: 65537 (0x10001)
        X509v3 extensions:
            X509v3 Subject Key Identifier: 
                7F:73:E0:AE:54:41:A3:5F:68:04:AE:0C:E3:BB:30:45:D5:E0:A4:04
            X509v3 Authority Key Identifier: 
                keyid:7F:73:E0:AE:54:41:A3:5F:68:04:AE:0C:E3:BB:30:45:D5:E0:A4:04

            X509v3 Basic Constraints: 
                CA:TRUE
    Signature Algorithm: sha256WithRSAEncryption
         50:87:65:0f:ec:7d:08:52:57:bc:a8:26:5b:a1:40:b8:05:77:
         c3:a2:46:f3:3c:f8:33:04:0e:e5:a5:db:b3:78:3c:8a:82:09:
         e8:a5:01:9a:dc:dc:42:13:3f:34:b5:6b:fe:85:c8:5c:f6:71:
         5d:62:3b:b4:fd:df:e4:dd:e2:2d:5c:2b:87:a9:2b:28:e5:3e:
         8d:29:da:1d:72:b4:05:85:cf:8a:fa:7c:ad:12:57:e7:a8:14:
         42:a2:d4:95:2f:78:97:78:80:1d:7f:0d:fa:a6:36:0f:48:52:
         8f:81:f4:e3:84:79:99:6b:2e:63:1a:ed:74:0a:f6:82:56:b3:
         ea:5b:97:3a:8f:8d:30:7d:ae:46:75:98:5f:fb:80:00:4a:5b:
         40:b3:e5:ce:d5:6c:a1:5e:0b:b1:9d:82:e7:87:4a:ee:77:90:
         f8:0e:aa:44:bf:c8:67:02:44:6d:87:91:c1:66:28:2b:b3:98:
         fc:13:4b:8f:f5:71:db:92:33:65:89:54:fe:53:fc:a9:ae:94:
         71:45:a6:3d:ec:88:3c:9a:8f:be:37:4e:f7:9c:c4:a1:d5:f6:
         8a:e5:84:72:e7:39:a5:4a:92:bb:9f:f1:c6:8b:03:c7:7b:d6:
         a4:58:4f:69:4e:60:ab:d5:84:37:9b:8f:80:57:7d:eb:21:e8:
         14:a5:af:b6
