-----BEGIN CERTIFICATE-----
MIID5TCCAs2gAwIBAgIJALnD1+pTBr26MA0GCSqGSIb3DQEBCwUAMIGIMQswCQYD
VQQGEwJJTDEPMA0GA1UECAwGaXNyYWVsMRIwEAYDVQQHDAlKZXJ1c2FsZW0xEDAO
BgNVBAoMB05ldEZyZWUxFTATBgNVBAsMDG5ldGZyZWUubGluazErMCkGA1UEAwwi
TmV0RnJlZSBTaWduICwgU2ltS2FzaGVyIC0gVHJpcGxlQzAeFw0xNzA2MjYxNzUx
MDlaFw0yNzA1MDUxNzUxMDlaMIGIMQswCQYDVQQGEwJJTDEPMA0GA1UECAwGaXNy
YWVsMRIwEAYDVQQHDAlKZXJ1c2FsZW0xEDAOBgNVBAoMB05ldEZyZWUxFTATBgNV
BAsMDG5ldGZyZWUubGluazErMCkGA1UEAwwiTmV0RnJlZSBTaWduICwgU2ltS2Fz
aGVyIC0gVHJpcGxlQzCCASIwDQYJKoZIhvcNAQEBBQADggEPADCCAQoCggEBAMM5
FtnDwNn6ErV5rZhc9VV1ujRRSDfK6n9TjK0zaHKhwrTgzj6YxzopfspqwoZM6QqS
ivNtDLKfQyVFUYGAFQiQgShQNYS8GheXqTI/U7SdWgKFUkdcOPmzNusYwa+G0cLz
NiRkKS+yRm+sGf+QLu18KACoc5FbL1+rM8OR0aCG2md/K8Z6xnYm371BGEiZjjhX
4tGL7SonHPs35Ga4LI6pJfUUItcliWBW6HnwcRk7Ilq/9q5gUjR5sbIvt0+9hdhj
1UQjE4gcsPzN5Fc+RvwDXBqozIk8cPVSNycwY2VZ4FofEAjtanS9R5LrshKK6Oi2
n61xzE/vHMVUJKYXqcUCAwEAAaNQME4wHQYDVR0OBBYEFFr8sgox5u0dhxiDDE7A
n11wTtBNMB8GA1UdIwQYMBaAFFr8sgox5u0dhxiDDE7An11wTtBNMAwGA1UdEwQF
MAMBAf8wDQYJKoZIhvcNAQELBQADggEBAJSPrJ3a3M0m+dHuGevOMKOjP5NexEiT
hWUX86/b7u0rKfphqGsl4y+wXRCiMydOwZCMg7MQjYvmT8XoN0rlVu73BxpcxYJg
I6Il4erTBSitCiXF39RQ3XW/akAqgAsaPSD4TdSImCVHW3UgJxHtRcM4SodIo+Zh
7WuNXCC5ET/C4y2EeMOtkWIcuncjPrL7pJwwiHPYjhK+SiievAzDGhrXbJxAmgy2
wsV6qU03j0I3fH1jC23SJRA8GudrZqUoTcfQmERPnyTiTp1Hn271crZ8ai9MPZQm
c+wKYHlblPbaj0EA06Dh6uCexhyTxa0wRtTODIfCxoHJMWWWPKb9H3k=
-----END CERTIFICATE-----
Certificate:
    Data:
        Version: 3 (0x2)
        Serial Number:
            b9:c3:d7:ea:53:06:bd:ba
        Signature Algorithm: sha256WithRSAEncryption
        Issuer: C = IL, ST = israel, L = Jerusalem, O = NetFree, OU = netfree.link, CN = "NetFree Sign , SimKasher - TripleC"
        Validity
            Not Before: Jun 26 17:51:09 2017 GMT
            Not After : May  5 17:51:09 2027 GMT
        Subject: C = IL, ST = israel, L = Jerusalem, O = NetFree, OU = netfree.link, CN = "NetFree Sign , SimKasher - TripleC"
        Subject Public Key Info:
            Public Key Algorithm: rsaEncryption
                RSA Public-Key: (2048 bit)
                Modulus:
                    00:c3:39:16:d9:c3:c0:d9:fa:12:b5:79:ad:98:5c:
                    f5:55:75:ba:34:51:48:37:ca:ea:7f:53:8c:ad:33:
                    68:72:a1:c2:b4:e0:ce:3e:98:c7:3a:29:7e:ca:6a:
                    c2:86:4c:e9:0a:92:8a:f3:6d:0c:b2:9f:43:25:45:
                    51:81:80:15:08:90:81:28:50:35:84:bc:1a:17:97:
                    a9:32:3f:53:b4:9d:5a:02:85:52:47:5c:38:f9:b3:
                    36:eb:18:c1:af:86:d1:c2:f3:36:24:64:29:2f:b2:
                    46:6f:ac:19:ff:90:2e:ed:7c:28:00:a8:73:91:5b:
                    2f:5f:ab:33:c3:91:d1:a0:86:da:67:7f:2b:c6:7a:
                    c6:76:26:df:bd:41:18:48:99:8e:38:57:e2:d1:8b:
                    ed:2a:27:1c:fb:37:e4:66:b8:2c:8e:a9:25:f5:14:
                    22:d7:25:89:60:56:e8:79:f0:71:19:3b:22:5a:bf:
                    f6:ae:60:52:34:79:b1:b2:2f:b7:4f:bd:85:d8:63:
                    d5:44:23:13:88:1c:b0:fc:cd:e4:57:3e:46:fc:03:
                    5c:1a:a8:cc:89:3c:70:f5:52:37:27:30:63:65:59:
                    e0:5a:1f:10:08:ed:6a:74:bd:47:92:eb:b2:12:8a:
                    e8:e8:b6:9f:ad:71:cc:4f:ef:1c:c5:54:24:a6:17:
                    a9:c5
                Exponent: 65537 (0x10001)
        X509v3 extensions:
            X509v3 Subject Key Identifier: 
                5A:FC:B2:0A:31:E6:ED:1D:87:18:83:0C:4E:C0:9F:5D:70:4E:D0:4D
            X509v3 Authority Key Identifier: 
                keyid:5A:FC:B2:0A:31:E6:ED:1D:87:18:83:0C:4E:C0:9F:5D:70:4E:D0:4D

            X509v3 Basic Constraints: 
                CA:TRUE
    Signature Algorithm: sha256WithRSAEncryption
         94:8f:ac:9d:da:dc:cd:26:f9:d1:ee:19:eb:ce:30:a3:a3:3f:
         93:5e:c4:48:93:85:65:17:f3:af:db:ee:ed:2b:29:fa:61:a8:
         6b:25:e3:2f:b0:5d:10:a2:33:27:4e:c1:90:8c:83:b3:10:8d:
         8b:e6:4f:c5:e8:37:4a:e5:56:ee:f7:07:1a:5c:c5:82:60:23:
         a2:25:e1:ea:d3:05:28:ad:0a:25:c5:df:d4:50:dd:75:bf:6a:
         40:2a:80:0b:1a:3d:20:f8:4d:d4:88:98:25:47:5b:75:20:27:
         11:ed:45:c3:38:4a:87:48:a3:e6:61:ed:6b:8d:5c:20:b9:11:
         3f:c2:e3:2d:84:78:c3:ad:91:62:1c:ba:77:23:3e:b2:fb:a4:
         9c:30:88:73:d8:8e:12:be:4a:28:9e:bc:0c:c3:1a:1a:d7:6c:
         9c:40:9a:0c:b6:c2:c5:7a:a9:4d:37:8f:42:37:7c:7d:63:0b:
         6d:d2:25:10:3c:1a:e7:6b:66:a5:28:4d:c7:d0:98:44:4f:9f:
         24:e2:4e:9d:47:9f:6e:f5:72:b6:7c:6a:2f:4c:3d:94:26:73:
         ec:0a:60:79:5b:94:f6:da:8f:41:00:d3:a0:e1:ea:e0:9e:c6:
         1c:93:c5:ad:30:46:d4:ce:0c:87:c2:c6:81:c9:31:65:96:3c:
         a6:fd:1f:79
