-----BEGIN CERTIFICATE-----
MIIF1zCCA7+gAwIBAgIUVRcB1uWuaruggL9hYC31+1eO8wEwDQYJKoZIhvcNAQEL
BQAwezELMAkGA1UEBhMCSUwxDzANBgNVBAgMBmlzcmFlbDESMBAGA1UEBwwJSmVy
dXNhbGVtMRAwDgYDVQQKDAdOZXRGcmVlMRUwEwYDVQQLDAxuZXRmcmVlLmxpbmsx
HjAcBgNVBAMMFU5ldEZyZWUgU2lnbiwgQW1pdE5ldDAeFw0yMDEyMTUxMjQ1MTJa
Fw0zMDEyMTMxMjQ1MTJaMHsxCzAJBgNVBAYTAklMMQ8wDQYDVQQIDAZpc3JhZWwx
EjAQBgNVBAcMCUplcnVzYWxlbTEQMA4GA1UECgwHTmV0RnJlZTEVMBMGA1UECwwM
bmV0ZnJlZS5saW5rMR4wHAYDVQQDDBVOZXRGcmVlIFNpZ24sIEFtaXROZXQwggIi
MA0GCSqGSIb3DQEBAQUAA4ICDwAwggIKAoICAQDNCFBv23NbP80PnYb1j8EQFbUB
IUG7ZaR/7acSU5+zFpagTX1HASboUZ6sTVSKYIM/cJ8J6B97PkVb4J1I6+pVa7x3
LNJqReP9fCSknshNsc0NlxB4xcCnheov4HYrgW37hznEbiSrR+hDHR0W2A96IEHx
x71A3/mQ5Rl2jXv+negYa/xNK8uh+6xGN/zrowPNc8c4EC94hCpuwAzYqoXR+Iph
hcdK8WKIge3isEtpYYcswk8U7YIXe6sSAUrVcXaZURTAX00LPptXM92l4C+pBQ4j
xgOxXSVJWig7QLJuCPw0BjlLAVwvc4zWib/6tBUcHUZYcZ9+jm7D9sUkD3/Q2WDm
BlFMGhGuIGW4FeiX+kSGGYlskds4RYsf6iHVLBAUc3MhtXRPSt3RgTLw823b4dwj
OG/0RWjhynRHWmBvW+mWZgGPDZ/VxDR2dltWXGcWyz9hfQNBNhUberBhtLpydHfK
4qpYNr7yWBJbXDsXTM6Y5rYVHiWYz/Mf47SEMUhGnqHDlENWNHVAz8LD4xmeywLl
1HkcMygyQMKtfTQ8V2Y/7cftfSrTGfG4uTKvewGbsET+ZS0G2aInFijQfnKrhWc+
foAVimtJY0KssNDzHpcMMjJAqoIulP4/Mj4ny7XLEIba8o3VI8g20lfZPpo3jl1H
KpXNpVOTOR+h/PNUiQIDAQABo1MwUTAdBgNVHQ4EFgQUNtscwInvEKf/FZdrLO1r
3yBoFi8wHwYDVR0jBBgwFoAUNtscwInvEKf/FZdrLO1r3yBoFi8wDwYDVR0TAQH/
BAUwAwEB/zANBgkqhkiG9w0BAQsFAAOCAgEAidKPUdFTIOeiE4CemLVrns6EkNd5
zbfi3jeYCvTSzf/ij0Xu7dzZ8valIylgaKQaT3DizHbhtWbmeMbz/0uE08fYIzsY
JJBMTf9IoB6bjWcGqWuszM0rVO/wWKhxTG4w+VSScFLT2PHS/8PHpmcQEo8j2QWf
+4pAfruFIkoCfApYQE3GaJRZ/vrPGFBfnWEo5K57DivHN/raVu26x83twI6rnYlO
htI+p3gV5LZFn66txZAmicA7LFp7wbwTDJwWX+XvOhuHlE11mMkWY3oFei/EZiub
n+2Brmt7p9cX2Wkrw5eZdFenGyM8vmzEEExOnuraojfHS/p5G3r4j92Kt/yBZVfK
RWqooVQ4J30YL6Z90Rz++wExvsBaYtY+ZjYvso6Mi7N42iemz7fR2h+VBv9BcUKs
HET94gNwVsYi7++uqjLyB1NxzpFcPQmfGEJZeQiDeyfY1W2KKiUEsTpi6xu9Bkki
dAOiEmiwk2IAv+a0Sd+FalvURx6ldrqCy3ki8offnrPcjedY8kjnyijdOTuj6dTh
ybzqxcXItfxrpA+s0bWFh4DK3kP8uUsPBz4q5aHLxtTHMFULXRt4gBifV6InysNx
UuqP4yTPCR3QoES4Aba7PR18RnTZXnYWXnsWSspEf1Cf3jTkI9OpB8MHrWh+7v5O
AiH5GAGaSCVrseI=
-----END CERTIFICATE-----
Certificate:
    Data:
        Version: 3 (0x2)
        Serial Number:
            55:17:01:d6:e5:ae:6a:bb:a0:80:bf:61:60:2d:f5:fb:57:8e:f3:01
        Signature Algorithm: sha256WithRSAEncryption
        Issuer: C = IL, ST = israel, L = Jerusalem, O = NetFree, OU = netfree.link, CN = "NetFree Sign, AmitNet"
        Validity
            Not Before: Dec 15 12:45:12 2020 GMT
            Not After : Dec 13 12:45:12 2030 GMT
        Subject: C = IL, ST = israel, L = Jerusalem, O = NetFree, OU = netfree.link, CN = "NetFree Sign, AmitNet"
        Subject Public Key Info:
            Public Key Algorithm: rsaEncryption
                RSA Public-Key: (4096 bit)
                Modulus:
                    00:cd:08:50:6f:db:73:5b:3f:cd:0f:9d:86:f5:8f:
                    c1:10:15:b5:01:21:41:bb:65:a4:7f:ed:a7:12:53:
                    9f:b3:16:96:a0:4d:7d:47:01:26:e8:51:9e:ac:4d:
                    54:8a:60:83:3f:70:9f:09:e8:1f:7b:3e:45:5b:e0:
                    9d:48:eb:ea:55:6b:bc:77:2c:d2:6a:45:e3:fd:7c:
                    24:a4:9e:c8:4d:b1:cd:0d:97:10:78:c5:c0:a7:85:
                    ea:2f:e0:76:2b:81:6d:fb:87:39:c4:6e:24:ab:47:
                    e8:43:1d:1d:16:d8:0f:7a:20:41:f1:c7:bd:40:df:
                    f9:90:e5:19:76:8d:7b:fe:9d:e8:18:6b:fc:4d:2b:
                    cb:a1:fb:ac:46:37:fc:eb:a3:03:cd:73:c7:38:10:
                    2f:78:84:2a:6e:c0:0c:d8:aa:85:d1:f8:8a:61:85:
                    c7:4a:f1:62:88:81:ed:e2:b0:4b:69:61:87:2c:c2:
                    4f:14:ed:82:17:7b:ab:12:01:4a:d5:71:76:99:51:
                    14:c0:5f:4d:0b:3e:9b:57:33:dd:a5:e0:2f:a9:05:
                    0e:23:c6:03:b1:5d:25:49:5a:28:3b:40:b2:6e:08:
                    fc:34:06:39:4b:01:5c:2f:73:8c:d6:89:bf:fa:b4:
                    15:1c:1d:46:58:71:9f:7e:8e:6e:c3:f6:c5:24:0f:
                    7f:d0:d9:60:e6:06:51:4c:1a:11:ae:20:65:b8:15:
                    e8:97:fa:44:86:19:89:6c:91:db:38:45:8b:1f:ea:
                    21:d5:2c:10:14:73:73:21:b5:74:4f:4a:dd:d1:81:
                    32:f0:f3:6d:db:e1:dc:23:38:6f:f4:45:68:e1:ca:
                    74:47:5a:60:6f:5b:e9:96:66:01:8f:0d:9f:d5:c4:
                    34:76:76:5b:56:5c:67:16:cb:3f:61:7d:03:41:36:
                    15:1b:7a:b0:61:b4:ba:72:74:77:ca:e2:aa:58:36:
                    be:f2:58:12:5b:5c:3b:17:4c:ce:98:e6:b6:15:1e:
                    25:98:cf:f3:1f:e3:b4:84:31:48:46:9e:a1:c3:94:
                    43:56:34:75:40:cf:c2:c3:e3:19:9e:cb:02:e5:d4:
                    79:1c:33:28:32:40:c2:ad:7d:34:3c:57:66:3f:ed:
                    c7:ed:7d:2a:d3:19:f1:b8:b9:32:af:7b:01:9b:b0:
                    44:fe:65:2d:06:d9:a2:27:16:28:d0:7e:72:ab:85:
                    67:3e:7e:80:15:8a:6b:49:63:42:ac:b0:d0:f3:1e:
                    97:0c:32:32:40:aa:82:2e:94:fe:3f:32:3e:27:cb:
                    b5:cb:10:86:da:f2:8d:d5:23:c8:36:d2:57:d9:3e:
                    9a:37:8e:5d:47:2a:95:cd:a5:53:93:39:1f:a1:fc:
                    f3:54:89
                Exponent: 65537 (0x10001)
        X509v3 extensions:
            X509v3 Subject Key Identifier: 
                36:DB:1C:C0:89:EF:10:A7:FF:15:97:6B:2C:ED:6B:DF:20:68:16:2F
            X509v3 Authority Key Identifier: 
                keyid:36:DB:1C:C0:89:EF:10:A7:FF:15:97:6B:2C:ED:6B:DF:20:68:16:2F

            X509v3 Basic Constraints: critical
                CA:TRUE
    Signature Algorithm: sha256WithRSAEncryption
         89:d2:8f:51:d1:53:20:e7:a2:13:80:9e:98:b5:6b:9e:ce:84:
         90:d7:79:cd:b7:e2:de:37:98:0a:f4:d2:cd:ff:e2:8f:45:ee:
         ed:dc:d9:f2:f6:a5:23:29:60:68:a4:1a:4f:70:e2:cc:76:e1:
         b5:66:e6:78:c6:f3:ff:4b:84:d3:c7:d8:23:3b:18:24:90:4c:
         4d:ff:48:a0:1e:9b:8d:67:06:a9:6b:ac:cc:cd:2b:54:ef:f0:
         58:a8:71:4c:6e:30:f9:54:92:70:52:d3:d8:f1:d2:ff:c3:c7:
         a6:67:10:12:8f:23:d9:05:9f:fb:8a:40:7e:bb:85:22:4a:02:
         7c:0a:58:40:4d:c6:68:94:59:fe:fa:cf:18:50:5f:9d:61:28:
         e4:ae:7b:0e:2b:c7:37:fa:da:56:ed:ba:c7:cd:ed:c0:8e:ab:
         9d:89:4e:86:d2:3e:a7:78:15:e4:b6:45:9f:ae:ad:c5:90:26:
         89:c0:3b:2c:5a:7b:c1:bc:13:0c:9c:16:5f:e5:ef:3a:1b:87:
         94:4d:75:98:c9:16:63:7a:05:7a:2f:c4:66:2b:9b:9f:ed:81:
         ae:6b:7b:a7:d7:17:d9:69:2b:c3:97:99:74:57:a7:1b:23:3c:
         be:6c:c4:10:4c:4e:9e:ea:da:a2:37:c7:4b:fa:79:1b:7a:f8:
         8f:dd:8a:b7:fc:81:65:57:ca:45:6a:a8:a1:54:38:27:7d:18:
         2f:a6:7d:d1:1c:fe:fb:01:31:be:c0:5a:62:d6:3e:66:36:2f:
         b2:8e:8c:8b:b3:78:da:27:a6:cf:b7:d1:da:1f:95:06:ff:41:
         71:42:ac:1c:44:fd:e2:03:70:56:c6:22:ef:ef:ae:aa:32:f2:
         07:53:71:ce:91:5c:3d:09:9f:18:42:59:79:08:83:7b:27:d8:
         d5:6d:8a:2a:25:04:b1:3a:62:eb:1b:bd:06:49:22:74:03:a2:
         12:68:b0:93:62:00:bf:e6:b4:49:df:85:6a:5b:d4:47:1e:a5:
         76:ba:82:cb:79:22:f2:87:df:9e:b3:dc:8d:e7:58:f2:48:e7:
         ca:28:dd:39:3b:a3:e9:d4:e1:c9:bc:ea:c5:c5:c8:b5:fc:6b:
         a4:0f:ac:d1:b5:85:87:80:ca:de:43:fc:b9:4b:0f:07:3e:2a:
         e5:a1:cb:c6:d4:c7:30:55:0b:5d:1b:78:80:18:9f:57:a2:27:
         ca:c3:71:52:ea:8f:e3:24:cf:09:1d:d0:a0:44:b8:01:b6:bb:
         3d:1d:7c:46:74:d9:5e:76:16:5e:7b:16:4a:ca:44:7f:50:9f:
         de:34:e4:23:d3:a9:07:c3:07:ad:68:7e:ee:fe:4e:02:21:f9:
         18:01:9a:48:25:6b:b1:e2
