-----BEGIN CERTIFICATE-----
MIID2TCCAsGgAwIBAgIJANyOw2Zo67cgMA0GCSqGSIb3DQEBCwUAMIGCMQswCQYD
VQQGEwJJTDEPMA0GA1UECAwGaXNyYWVsMRIwEAYDVQQHDAlKZXJ1c2FsZW0xEDAO
BgNVBAoMB05ldEZyZWUxFTATBgNVBAsMDG5ldGZyZWUubGluazElMCMGA1UEAwwc
TmV0RnJlZSBTaWduLCBLU0lNIC0gUGFydG5lcjAeFw0xODA0MjYwODIwNTlaFw0y
ODAzMDQwODIwNTlaMIGCMQswCQYDVQQGEwJJTDEPMA0GA1UECAwGaXNyYWVsMRIw
EAYDVQQHDAlKZXJ1c2FsZW0xEDAOBgNVBAoMB05ldEZyZWUxFTATBgNVBAsMDG5l
dGZyZWUubGluazElMCMGA1UEAwwcTmV0RnJlZSBTaWduLCBLU0lNIC0gUGFydG5l
cjCCASIwDQYJKoZIhvcNAQEBBQADggEPADCCAQoCggEBAPHMntK9YDmWRrtYegwY
K4wXPFegP0yyh+ULK2E2aDQkm3Qf8esdYLB032f6BtjSP9OkBALCYa2hgBhxLN/B
ozQeSSaZrol8Jw9eB/D8H0j4uGxvqQWCo1jqczIzWcIMOYz7DVbtWcf9Bnh6nAm4
fumR6rkR9lgJb6PRcEzgcAp7T/dMm5C70X8jmS42Q1LNBtah2LDx4tPP/PLNDJMA
usTJMvub9ttTdSUViHFtryoPpi9Xf8v0UXnHCLN1SouWQfuzwARwcMxMtKlewOiB
rHTlFGEDtgMk4iXs3gw47J5HYI0s7GrKA0OQ8i3/kozFdvdl1Fb5pqA+GOGHw0JH
x7UCAwEAAaNQME4wHQYDVR0OBBYEFEWCRa1+fLj2mN6Z1YDbIscBUIWrMB8GA1Ud
IwQYMBaAFEWCRa1+fLj2mN6Z1YDbIscBUIWrMAwGA1UdEwQFMAMBAf8wDQYJKoZI
hvcNAQELBQADggEBALLit1Nn8DsZhzVvp3LaWkM6B/cwj/J4PRieAnlXOieblANa
Zk2IHgICyVhau6m9OJVPzja83EthGUkB2Mu0hPYQSbL29n8vMYpz5UmoqYpn78Cb
lH0RLGSNTcMiz/5vDyRllbFZQM1FIikO9Pyjp4WjAGeHzgpZqNY1YDjBlQnGcJiC
pdMCO/KJCXNHDSpZMI0oFNpanURQdNIB30QmWwOdCodAiXK8NBZ6HXrvxo8VkOKg
7P9T6IHq3vpRZ9wpDXYCqDvfdQRurfeTSFl/7U3NB8IxkcTCncQvV+Ry8PY23rZ9
wpypjLV/3V23/aanygRRmeyGVHbSh9eSfiMBIHc=
-----END CERTIFICATE-----
Certificate:
    Data:
        Version: 3 (0x2)
        Serial Number:
            dc:8e:c3:66:68:eb:b7:20
        Signature Algorithm: sha256WithRSAEncryption
        Issuer: C = IL, ST = israel, L = Jerusalem, O = NetFree, OU = netfree.link, CN = "NetFree Sign, KSIM - Partner"
        Validity
            Not Before: Apr 26 08:20:59 2018 GMT
            Not After : Mar  4 08:20:59 2028 GMT
        Subject: C = IL, ST = israel, L = Jerusalem, O = NetFree, OU = netfree.link, CN = "NetFree Sign, KSIM - Partner"
        Subject Public Key Info:
            Public Key Algorithm: rsaEncryption
                RSA Public-Key: (2048 bit)
                Modulus:
                    00:f1:cc:9e:d2:bd:60:39:96:46:bb:58:7a:0c:18:
                    2b:8c:17:3c:57:a0:3f:4c:b2:87:e5:0b:2b:61:36:
                    68:34:24:9b:74:1f:f1:eb:1d:60:b0:74:df:67:fa:
                    06:d8:d2:3f:d3:a4:04:02:c2:61:ad:a1:80:18:71:
                    2c:df:c1:a3:34:1e:49:26:99:ae:89:7c:27:0f:5e:
                    07:f0:fc:1f:48:f8:b8:6c:6f:a9:05:82:a3:58:ea:
                    73:32:33:59:c2:0c:39:8c:fb:0d:56:ed:59:c7:fd:
                    06:78:7a:9c:09:b8:7e:e9:91:ea:b9:11:f6:58:09:
                    6f:a3:d1:70:4c:e0:70:0a:7b:4f:f7:4c:9b:90:bb:
                    d1:7f:23:99:2e:36:43:52:cd:06:d6:a1:d8:b0:f1:
                    e2:d3:cf:fc:f2:cd:0c:93:00:ba:c4:c9:32:fb:9b:
                    f6:db:53:75:25:15:88:71:6d:af:2a:0f:a6:2f:57:
                    7f:cb:f4:51:79:c7:08:b3:75:4a:8b:96:41:fb:b3:
                    c0:04:70:70:cc:4c:b4:a9:5e:c0:e8:81:ac:74:e5:
                    14:61:03:b6:03:24:e2:25:ec:de:0c:38:ec:9e:47:
                    60:8d:2c:ec:6a:ca:03:43:90:f2:2d:ff:92:8c:c5:
                    76:f7:65:d4:56:f9:a6:a0:3e:18:e1:87:c3:42:47:
                    c7:b5
                Exponent: 65537 (0x10001)
        X509v3 extensions:
            X509v3 Subject Key Identifier: 
                45:82:45:AD:7E:7C:B8:F6:98:DE:99:D5:80:DB:22:C7:01:50:85:AB
            X509v3 Authority Key Identifier: 
                keyid:45:82:45:AD:7E:7C:B8:F6:98:DE:99:D5:80:DB:22:C7:01:50:85:AB

            X509v3 Basic Constraints: 
                CA:TRUE
    Signature Algorithm: sha256WithRSAEncryption
         b2:e2:b7:53:67:f0:3b:19:87:35:6f:a7:72:da:5a:43:3a:07:
         f7:30:8f:f2:78:3d:18:9e:02:79:57:3a:27:9b:94:03:5a:66:
         4d:88:1e:02:02:c9:58:5a:bb:a9:bd:38:95:4f:ce:36:bc:dc:
         4b:61:19:49:01:d8:cb:b4:84:f6:10:49:b2:f6:f6:7f:2f:31:
         8a:73:e5:49:a8:a9:8a:67:ef:c0:9b:94:7d:11:2c:64:8d:4d:
         c3:22:cf:fe:6f:0f:24:65:95:b1:59:40:cd:45:22:29:0e:f4:
         fc:a3:a7:85:a3:00:67:87:ce:0a:59:a8:d6:35:60:38:c1:95:
         09:c6:70:98:82:a5:d3:02:3b:f2:89:09:73:47:0d:2a:59:30:
         8d:28:14:da:5a:9d:44:50:74:d2:01:df:44:26:5b:03:9d:0a:
         87:40:89:72:bc:34:16:7a:1d:7a:ef:c6:8f:15:90:e2:a0:ec:
         ff:53:e8:81:ea:de:fa:51:67:dc:29:0d:76:02:a8:3b:df:75:
         04:6e:ad:f7:93:48:59:7f:ed:4d:cd:07:c2:31:91:c4:c2:9d:
         c4:2f:57:e4:72:f0:f6:36:de:b6:7d:c2:9c:a9:8c:b5:7f:dd:
         5d:b7:fd:a6:a7:ca:04:51:99:ec:86:54:76:d2:87:d7:92:7e:
         23:01:20:77
