-----BEGIN CERTIFICATE-----
MIIFxzCCA6+gAwIBAgIJAMOfeHNsvnuxMA0GCSqGSIb3DQEBCwUAMHoxCzAJBgNV
BAYTAklMMQ8wDQYDVQQIDAZpc3JhZWwxEjAQBgNVBAcMCUplcnVzYWxlbTEQMA4G
A1UECgwHTmV0RnJlZTEVMBMGA1UECwwMbmV0ZnJlZS5saW5rMR0wGwYDVQQDDBRO
ZXRGcmVlIFNpZ24gLElCLUlUQzAeFw0xOTEwMjYxOTEwMjNaFw0yOTA5MDMxOTEw
MjNaMHoxCzAJBgNVBAYTAklMMQ8wDQYDVQQIDAZpc3JhZWwxEjAQBgNVBAcMCUpl
cnVzYWxlbTEQMA4GA1UECgwHTmV0RnJlZTEVMBMGA1UECwwMbmV0ZnJlZS5saW5r
MR0wGwYDVQQDDBROZXRGcmVlIFNpZ24gLElCLUlUQzCCAiIwDQYJKoZIhvcNAQEB
BQADggIPADCCAgoCggIBAPistDj0oOuF1Mtu2VyYOK+O/fhMHQIYg3ZG7HMxIPBp
dSpCeH+3Z6Qi1YSlDkd0sW7C3KqUt1gsJyf2HZLBrCEBBlFtCN/zCdIjo/pelR7q
+qXYr67y980GzZqnlYgGbS3PbthsXfayAQi1LsSR1UXdUg91WgJLFdMgIVsnSq5K
w8re1D+V9KfX1SnmH/WDfzb/ickxryyiieMQV+lNegDhsTqSaHuOowsFNgZkwsoo
c+DAuHfBFn+jWwZMFPDsiWSROsh4rcft172+I4ReR1Cr2JdHzueJQNx8mTcr5COM
e6Hl72K4Kot4G6ohL74GATs6fSP3kcy8UafDSnODAffixZt7S59K9hSqsMVJvTzS
T/pmhrQFS7xACj4TJa/f1t+5LYRe6FdwEcXeHNcfSVVRfPgLdiKFAD5ok3TFBXfO
fsAkpdhdfSSUOBWLuE/l+Ko56enic59JeewwbC322Ihvn+1PaloVINHQTlXJhCFD
CkoizPrm9AFlM2IK+qPN0GSckj2X6Eo/bxFmt6GXsZW8kzoDc4TlclLxoMJB+jJn
H1EH9+h1wWNR9kybBnrnKSGdlapD0OK42H/Ul44uLtNLKN3zpMvYWabSdThYTUqZ
pCg8tXyQj1z/3l12Ka7QIEqkqTHF35MTe0YrDLbKo4N8s1vlkfevcwHeerSI5ts1
AgMBAAGjUDBOMB0GA1UdDgQWBBSnCGbym3/xoGKcYFbwvP2yTjBbADAfBgNVHSME
GDAWgBSnCGbym3/xoGKcYFbwvP2yTjBbADAMBgNVHRMEBTADAQH/MA0GCSqGSIb3
DQEBCwUAA4ICAQCspY/ayI3Mwvp6nAWpBaLSw/YDWChYAG99prvgCSRYVgwRQGw5
oZnhYFSZM+Suh0cHKh3tU1nZDpgn/vvqOmf1IPHCI+ZOEY73YZmPlYD3JE2ZJDzO
QdJPwW/07W7XAjCIoLw27C/xJDRpBRCXpqfAfmw8qTrNEsozhX9pzJkCVr6UtYX5
X5LWY0oX9Y/OY8dGQeGqQNeAMwVyW0pmUs5lmVTzPP4mhWLmqF8MCPf8ULswBfr+
uWHNGG1u7RAwm8MP4hi1IgT8bVLQJjaLFRV/dUVHDs5dnF0ZnpNnvfoJxCbyMjcR
JWb4yR+31ZNrC+SZobtTcEOnzuaaL5AHGb6gZt0qGOVoykPM4dtlFH3jVrCdvOAA
0QCzjfu6o8Eb2HzdWKKm4Kxl9mlwznQrOCa3jmj6L9g/Y1tetYAnJwrgzZVvrNMV
5bLW1beBvb/Y99z3TNhjqgjv5gBeeN0cJ63k8P/ZuikuNuhCub2Lo8diYhaw2C6o
5hMg+q5U9FML//mXWsD6bHN68XPQEUf43O8BCOeIOyW1fDIX3y9RcwJf2lP4frkH
Eo9RaDUsLWdPVxPvgdVSZUiOxkKJ3CxSJaffrsccNTMcFx/ACzQqn6gxRHPuqK0Y
0Ka6pV5b03zWCT+G6qzidxHjKnwOhKV5r+5nYFzcvPpZijK/RmnSDjWuTQ==
-----END CERTIFICATE-----
Certificate:
    Data:
        Version: 3 (0x2)
        Serial Number:
            c3:9f:78:73:6c:be:7b:b1
        Signature Algorithm: sha256WithRSAEncryption
        Issuer: C = IL, ST = israel, L = Jerusalem, O = NetFree, OU = netfree.link, CN = "NetFree Sign ,IB-ITC"
        Validity
            Not Before: Oct 26 19:10:23 2019 GMT
            Not After : Sep  3 19:10:23 2029 GMT
        Subject: C = IL, ST = israel, L = Jerusalem, O = NetFree, OU = netfree.link, CN = "NetFree Sign ,IB-ITC"
        Subject Public Key Info:
            Public Key Algorithm: rsaEncryption
                RSA Public-Key: (4096 bit)
                Modulus:
                    00:f8:ac:b4:38:f4:a0:eb:85:d4:cb:6e:d9:5c:98:
                    38:af:8e:fd:f8:4c:1d:02:18:83:76:46:ec:73:31:
                    20:f0:69:75:2a:42:78:7f:b7:67:a4:22:d5:84:a5:
                    0e:47:74:b1:6e:c2:dc:aa:94:b7:58:2c:27:27:f6:
                    1d:92:c1:ac:21:01:06:51:6d:08:df:f3:09:d2:23:
                    a3:fa:5e:95:1e:ea:fa:a5:d8:af:ae:f2:f7:cd:06:
                    cd:9a:a7:95:88:06:6d:2d:cf:6e:d8:6c:5d:f6:b2:
                    01:08:b5:2e:c4:91:d5:45:dd:52:0f:75:5a:02:4b:
                    15:d3:20:21:5b:27:4a:ae:4a:c3:ca:de:d4:3f:95:
                    f4:a7:d7:d5:29:e6:1f:f5:83:7f:36:ff:89:c9:31:
                    af:2c:a2:89:e3:10:57:e9:4d:7a:00:e1:b1:3a:92:
                    68:7b:8e:a3:0b:05:36:06:64:c2:ca:28:73:e0:c0:
                    b8:77:c1:16:7f:a3:5b:06:4c:14:f0:ec:89:64:91:
                    3a:c8:78:ad:c7:ed:d7:bd:be:23:84:5e:47:50:ab:
                    d8:97:47:ce:e7:89:40:dc:7c:99:37:2b:e4:23:8c:
                    7b:a1:e5:ef:62:b8:2a:8b:78:1b:aa:21:2f:be:06:
                    01:3b:3a:7d:23:f7:91:cc:bc:51:a7:c3:4a:73:83:
                    01:f7:e2:c5:9b:7b:4b:9f:4a:f6:14:aa:b0:c5:49:
                    bd:3c:d2:4f:fa:66:86:b4:05:4b:bc:40:0a:3e:13:
                    25:af:df:d6:df:b9:2d:84:5e:e8:57:70:11:c5:de:
                    1c:d7:1f:49:55:51:7c:f8:0b:76:22:85:00:3e:68:
                    93:74:c5:05:77:ce:7e:c0:24:a5:d8:5d:7d:24:94:
                    38:15:8b:b8:4f:e5:f8:aa:39:e9:e9:e2:73:9f:49:
                    79:ec:30:6c:2d:f6:d8:88:6f:9f:ed:4f:6a:5a:15:
                    20:d1:d0:4e:55:c9:84:21:43:0a:4a:22:cc:fa:e6:
                    f4:01:65:33:62:0a:fa:a3:cd:d0:64:9c:92:3d:97:
                    e8:4a:3f:6f:11:66:b7:a1:97:b1:95:bc:93:3a:03:
                    73:84:e5:72:52:f1:a0:c2:41:fa:32:67:1f:51:07:
                    f7:e8:75:c1:63:51:f6:4c:9b:06:7a:e7:29:21:9d:
                    95:aa:43:d0:e2:b8:d8:7f:d4:97:8e:2e:2e:d3:4b:
                    28:dd:f3:a4:cb:d8:59:a6:d2:75:38:58:4d:4a:99:
                    a4:28:3c:b5:7c:90:8f:5c:ff:de:5d:76:29:ae:d0:
                    20:4a:a4:a9:31:c5:df:93:13:7b:46:2b:0c:b6:ca:
                    a3:83:7c:b3:5b:e5:91:f7:af:73:01:de:7a:b4:88:
                    e6:db:35
                Exponent: 65537 (0x10001)
        X509v3 extensions:
            X509v3 Subject Key Identifier: 
                A7:08:66:F2:9B:7F:F1:A0:62:9C:60:56:F0:BC:FD:B2:4E:30:5B:00
            X509v3 Authority Key Identifier: 
                keyid:A7:08:66:F2:9B:7F:F1:A0:62:9C:60:56:F0:BC:FD:B2:4E:30:5B:00

            X509v3 Basic Constraints: 
                CA:TRUE
    Signature Algorithm: sha256WithRSAEncryption
         ac:a5:8f:da:c8:8d:cc:c2:fa:7a:9c:05:a9:05:a2:d2:c3:f6:
         03:58:28:58:00:6f:7d:a6:bb:e0:09:24:58:56:0c:11:40:6c:
         39:a1:99:e1:60:54:99:33:e4:ae:87:47:07:2a:1d:ed:53:59:
         d9:0e:98:27:fe:fb:ea:3a:67:f5:20:f1:c2:23:e6:4e:11:8e:
         f7:61:99:8f:95:80:f7:24:4d:99:24:3c:ce:41:d2:4f:c1:6f:
         f4:ed:6e:d7:02:30:88:a0:bc:36:ec:2f:f1:24:34:69:05:10:
         97:a6:a7:c0:7e:6c:3c:a9:3a:cd:12:ca:33:85:7f:69:cc:99:
         02:56:be:94:b5:85:f9:5f:92:d6:63:4a:17:f5:8f:ce:63:c7:
         46:41:e1:aa:40:d7:80:33:05:72:5b:4a:66:52:ce:65:99:54:
         f3:3c:fe:26:85:62:e6:a8:5f:0c:08:f7:fc:50:bb:30:05:fa:
         fe:b9:61:cd:18:6d:6e:ed:10:30:9b:c3:0f:e2:18:b5:22:04:
         fc:6d:52:d0:26:36:8b:15:15:7f:75:45:47:0e:ce:5d:9c:5d:
         19:9e:93:67:bd:fa:09:c4:26:f2:32:37:11:25:66:f8:c9:1f:
         b7:d5:93:6b:0b:e4:99:a1:bb:53:70:43:a7:ce:e6:9a:2f:90:
         07:19:be:a0:66:dd:2a:18:e5:68:ca:43:cc:e1:db:65:14:7d:
         e3:56:b0:9d:bc:e0:00:d1:00:b3:8d:fb:ba:a3:c1:1b:d8:7c:
         dd:58:a2:a6:e0:ac:65:f6:69:70:ce:74:2b:38:26:b7:8e:68:
         fa:2f:d8:3f:63:5b:5e:b5:80:27:27:0a:e0:cd:95:6f:ac:d3:
         15:e5:b2:d6:d5:b7:81:bd:bf:d8:f7:dc:f7:4c:d8:63:aa:08:
         ef:e6:00:5e:78:dd:1c:27:ad:e4:f0:ff:d9:ba:29:2e:36:e8:
         42:b9:bd:8b:a3:c7:62:62:16:b0:d8:2e:a8:e6:13:20:fa:ae:
         54:f4:53:0b:ff:f9:97:5a:c0:fa:6c:73:7a:f1:73:d0:11:47:
         f8:dc:ef:01:08:e7:88:3b:25:b5:7c:32:17:df:2f:51:73:02:
         5f:da:53:f8:7e:b9:07:12:8f:51:68:35:2c:2d:67:4f:57:13:
         ef:81:d5:52:65:48:8e:c6:42:89:dc:2c:52:25:a7:df:ae:c7:
         1c:35:33:1c:17:1f:c0:0b:34:2a:9f:a8:31:44:73:ee:a8:ad:
         18:d0:a6:ba:a5:5e:5b:d3:7c:d6:09:3f:86:ea:ac:e2:77:11:
         e3:2a:7c:0e:84:a5:79:af:ee:67:60:5c:dc:bc:fa:59:8a:32:
         bf:46:69:d2:0e:35:ae:4d
