-----BEGIN CERTIFICATE-----
MIIFzzCCA7egAwIBAgIUWVzvad617aEkkFZ5UDDiq93NTVkwDQYJKoZIhvcNAQEL
BQAwdzELMAkGA1UEBhMCSUwxDzANBgNVBAgMBmlzcmFlbDESMBAGA1UEBwwJSmVy
dXNhbGVtMRAwDgYDVQQKDAdOZXRGcmVlMRUwEwYDVQQLDAxuZXRmcmVlLmxpbmsx
GjAYBgNVBAMMEU5ldEZyZWUgU2lnbiwgMDk5MB4XDTIxMDQwNzIyMTQ0NFoXDTMx
MDQwNTIyMTQ0NFowdzELMAkGA1UEBhMCSUwxDzANBgNVBAgMBmlzcmFlbDESMBAG
A1UEBwwJSmVydXNhbGVtMRAwDgYDVQQKDAdOZXRGcmVlMRUwEwYDVQQLDAxuZXRm
cmVlLmxpbmsxGjAYBgNVBAMMEU5ldEZyZWUgU2lnbiwgMDk5MIICIjANBgkqhkiG
9w0BAQEFAAOCAg8AMIICCgKCAgEAsnHF+C8rBiEzeZJ88nKVAZEh6SwSrNwoRNLV
gr69fj9mU7Tpgu8dRP+1q4MaZDTdXw+pqbvo/R9Jzc/YCN1BvrvL5ULCfNOwoCFa
MyLhNQ/zXMwfWiCeWr5qJ0rdpyWrGvXrurYIcbwzgAxpQA5krBUyZI/QJIjWi6PG
FZya7YrvzcvEG3Mbzl+E/G12FDuT5NVuNQIBE+mR9ZOFPrZsEDJb7SoZoIic7p1k
mrHwPMv3w07QIHOwFq9e8t/c7cFMEqOUC2/+Uw73J2MdYLX5vyTDtChAM0h5M00F
14tO7t46ofZ+GHj8w0kNoFk5Z1eNIXMasbs77fCN6LYHN1seuKvDh0p4ZdDLdObo
Y2XT8n+I7O2tY5PIaNoWDuQpKwUplY0WQFca7iKyy8ajojJPOMt40SaR7NtBvwl3
fYRPHvX57tQB55vpcTq7uVdaeEq3/G19wRVgDLs/MIFaPTV31RyOsrUzIc944aN8
YDBG4Mw6uUyVG3wxq9/QgZliW+wNj77gSMFZsj7aA0FqaDpQ4hdoGoehKP+B6y10
ZVOqe/sgPnZBW/KW+3uwOP/Bq809Q+G/JUQR23bhqCYht7zbi+f5pOmKXijAjnMh
Bs7fnxzc0YMNHYQ3RF9VNiteC8/+8rMgXIjq94cF8vAkm/kHT4qyNIzLVu/oUkrp
UYFd0YMCAwEAAaNTMFEwHQYDVR0OBBYEFHpftzbYdX1vM6czqDzA2ABKkMMzMB8G
A1UdIwQYMBaAFHpftzbYdX1vM6czqDzA2ABKkMMzMA8GA1UdEwEB/wQFMAMBAf8w
DQYJKoZIhvcNAQELBQADggIBACntHyKEjJaGqezp/SYdmvC6Gw0HVEahudZJTlM8
uWDCINdJFSSRMnAHC57qeKU+4AuN2ZO0BnRyVSK1XY0rlS0ZeNidRg2g1PgplJ3I
4KPKiq0LxllnPtSJiuNp81LazUj5iyqsHCPDE0pZVu1729kTfL2a2Ah3yaB5LxiX
6xMuZurI3LscOcfrN3oUH0lvlvt4hjmpi90UJ/Wtd+fllyw1sqInQfv87MOkoFzy
u9Rif2ZiBwMw32K9X7q/w7/iw77G1F9u/gbogP7CgDkKCxeyl5rLwkJKgV0g93xg
bonHdOmKlHYLMBuEx1CYdvAZcEwPdeiNuKbj1l8iJ4+PeYD2hRo+NmL/8Kjj3XTr
Xymah0bNsJFYda7W4plL6DzjvrMjwkLq1IeLDZLvL0iNk0wfe3GY7ojvqcY55XEo
TdEHiKqck8uTxzH/U5AGh26nbOxAe6AYNmbgmiJxWZXqYeqEmTx9B6Zk61RdFTem
gml5hqvUjM97JmSi/ORF31uP6+Jv35oQEo4YjeDD6ACDiDBjfyjPVMGVAxf6IRSt
s9O6OoYKZO09gaRuHXLSY9kfXSGsrV5mqbFr0r2C8n+u8kGjkILaCabil7cMBUfz
x95VUUI9AUunwF2ERMuTgfR1CE4gDJcUTU7Wf1o3xEpvCgQ6ffYzBXkHjeOTaZkI
zlA/
-----END CERTIFICATE-----
Certificate:
    Data:
        Version: 3 (0x2)
        Serial Number:
            59:5c:ef:69:de:b5:ed:a1:24:90:56:79:50:30:e2:ab:dd:cd:4d:59
        Signature Algorithm: sha256WithRSAEncryption
        Issuer: C = IL, ST = israel, L = Jerusalem, O = NetFree, OU = netfree.link, CN = "NetFree Sign, 099"
        Validity
            Not Before: Apr  7 22:14:44 2021 GMT
            Not After : Apr  5 22:14:44 2031 GMT
        Subject: C = IL, ST = israel, L = Jerusalem, O = NetFree, OU = netfree.link, CN = "NetFree Sign, 099"
        Subject Public Key Info:
            Public Key Algorithm: rsaEncryption
                RSA Public-Key: (4096 bit)
                Modulus:
                    00:b2:71:c5:f8:2f:2b:06:21:33:79:92:7c:f2:72:
                    95:01:91:21:e9:2c:12:ac:dc:28:44:d2:d5:82:be:
                    bd:7e:3f:66:53:b4:e9:82:ef:1d:44:ff:b5:ab:83:
                    1a:64:34:dd:5f:0f:a9:a9:bb:e8:fd:1f:49:cd:cf:
                    d8:08:dd:41:be:bb:cb:e5:42:c2:7c:d3:b0:a0:21:
                    5a:33:22:e1:35:0f:f3:5c:cc:1f:5a:20:9e:5a:be:
                    6a:27:4a:dd:a7:25:ab:1a:f5:eb:ba:b6:08:71:bc:
                    33:80:0c:69:40:0e:64:ac:15:32:64:8f:d0:24:88:
                    d6:8b:a3:c6:15:9c:9a:ed:8a:ef:cd:cb:c4:1b:73:
                    1b:ce:5f:84:fc:6d:76:14:3b:93:e4:d5:6e:35:02:
                    01:13:e9:91:f5:93:85:3e:b6:6c:10:32:5b:ed:2a:
                    19:a0:88:9c:ee:9d:64:9a:b1:f0:3c:cb:f7:c3:4e:
                    d0:20:73:b0:16:af:5e:f2:df:dc:ed:c1:4c:12:a3:
                    94:0b:6f:fe:53:0e:f7:27:63:1d:60:b5:f9:bf:24:
                    c3:b4:28:40:33:48:79:33:4d:05:d7:8b:4e:ee:de:
                    3a:a1:f6:7e:18:78:fc:c3:49:0d:a0:59:39:67:57:
                    8d:21:73:1a:b1:bb:3b:ed:f0:8d:e8:b6:07:37:5b:
                    1e:b8:ab:c3:87:4a:78:65:d0:cb:74:e6:e8:63:65:
                    d3:f2:7f:88:ec:ed:ad:63:93:c8:68:da:16:0e:e4:
                    29:2b:05:29:95:8d:16:40:57:1a:ee:22:b2:cb:c6:
                    a3:a2:32:4f:38:cb:78:d1:26:91:ec:db:41:bf:09:
                    77:7d:84:4f:1e:f5:f9:ee:d4:01:e7:9b:e9:71:3a:
                    bb:b9:57:5a:78:4a:b7:fc:6d:7d:c1:15:60:0c:bb:
                    3f:30:81:5a:3d:35:77:d5:1c:8e:b2:b5:33:21:cf:
                    78:e1:a3:7c:60:30:46:e0:cc:3a:b9:4c:95:1b:7c:
                    31:ab:df:d0:81:99:62:5b:ec:0d:8f:be:e0:48:c1:
                    59:b2:3e:da:03:41:6a:68:3a:50:e2:17:68:1a:87:
                    a1:28:ff:81:eb:2d:74:65:53:aa:7b:fb:20:3e:76:
                    41:5b:f2:96:fb:7b:b0:38:ff:c1:ab:cd:3d:43:e1:
                    bf:25:44:11:db:76:e1:a8:26:21:b7:bc:db:8b:e7:
                    f9:a4:e9:8a:5e:28:c0:8e:73:21:06:ce:df:9f:1c:
                    dc:d1:83:0d:1d:84:37:44:5f:55:36:2b:5e:0b:cf:
                    fe:f2:b3:20:5c:88:ea:f7:87:05:f2:f0:24:9b:f9:
                    07:4f:8a:b2:34:8c:cb:56:ef:e8:52:4a:e9:51:81:
                    5d:d1:83
                Exponent: 65537 (0x10001)
        X509v3 extensions:
            X509v3 Subject Key Identifier: 
                7A:5F:B7:36:D8:75:7D:6F:33:A7:33:A8:3C:C0:D8:00:4A:90:C3:33
            X509v3 Authority Key Identifier: 
                keyid:7A:5F:B7:36:D8:75:7D:6F:33:A7:33:A8:3C:C0:D8:00:4A:90:C3:33

            X509v3 Basic Constraints: critical
                CA:TRUE
    Signature Algorithm: sha256WithRSAEncryption
         29:ed:1f:22:84:8c:96:86:a9:ec:e9:fd:26:1d:9a:f0:ba:1b:
         0d:07:54:46:a1:b9:d6:49:4e:53:3c:b9:60:c2:20:d7:49:15:
         24:91:32:70:07:0b:9e:ea:78:a5:3e:e0:0b:8d:d9:93:b4:06:
         74:72:55:22:b5:5d:8d:2b:95:2d:19:78:d8:9d:46:0d:a0:d4:
         f8:29:94:9d:c8:e0:a3:ca:8a:ad:0b:c6:59:67:3e:d4:89:8a:
         e3:69:f3:52:da:cd:48:f9:8b:2a:ac:1c:23:c3:13:4a:59:56:
         ed:7b:db:d9:13:7c:bd:9a:d8:08:77:c9:a0:79:2f:18:97:eb:
         13:2e:66:ea:c8:dc:bb:1c:39:c7:eb:37:7a:14:1f:49:6f:96:
         fb:78:86:39:a9:8b:dd:14:27:f5:ad:77:e7:e5:97:2c:35:b2:
         a2:27:41:fb:fc:ec:c3:a4:a0:5c:f2:bb:d4:62:7f:66:62:07:
         03:30:df:62:bd:5f:ba:bf:c3:bf:e2:c3:be:c6:d4:5f:6e:fe:
         06:e8:80:fe:c2:80:39:0a:0b:17:b2:97:9a:cb:c2:42:4a:81:
         5d:20:f7:7c:60:6e:89:c7:74:e9:8a:94:76:0b:30:1b:84:c7:
         50:98:76:f0:19:70:4c:0f:75:e8:8d:b8:a6:e3:d6:5f:22:27:
         8f:8f:79:80:f6:85:1a:3e:36:62:ff:f0:a8:e3:dd:74:eb:5f:
         29:9a:87:46:cd:b0:91:58:75:ae:d6:e2:99:4b:e8:3c:e3:be:
         b3:23:c2:42:ea:d4:87:8b:0d:92:ef:2f:48:8d:93:4c:1f:7b:
         71:98:ee:88:ef:a9:c6:39:e5:71:28:4d:d1:07:88:aa:9c:93:
         cb:93:c7:31:ff:53:90:06:87:6e:a7:6c:ec:40:7b:a0:18:36:
         66:e0:9a:22:71:59:95:ea:61:ea:84:99:3c:7d:07:a6:64:eb:
         54:5d:15:37:a6:82:69:79:86:ab:d4:8c:cf:7b:26:64:a2:fc:
         e4:45:df:5b:8f:eb:e2:6f:df:9a:10:12:8e:18:8d:e0:c3:e8:
         00:83:88:30:63:7f:28:cf:54:c1:95:03:17:fa:21:14:ad:b3:
         d3:ba:3a:86:0a:64:ed:3d:81:a4:6e:1d:72:d2:63:d9:1f:5d:
         21:ac:ad:5e:66:a9:b1:6b:d2:bd:82:f2:7f:ae:f2:41:a3:90:
         82:da:09:a6:e2:97:b7:0c:05:47:f3:c7:de:55:51:42:3d:01:
         4b:a7:c0:5d:84:44:cb:93:81:f4:75:08:4e:20:0c:97:14:4d:
         4e:d6:7f:5a:37:c4:4a:6f:0a:04:3a:7d:f6:33:05:79:07:8d:
         e3:93:69:99:08:ce:50:3f
