-----BEGIN CERTIFICATE-----
MIIF0zCCA7ugAwIBAgIUaH5U+ogY8MmdlevWZGKqnge9GKQwDQYJKoZIhvcNAQEL
BQAweTELMAkGA1UEBhMCSUwxDzANBgNVBAgMBmlzcmFlbDESMBAGA1UEBwwJSmVy
dXNhbGVtMRAwDgYDVQQKDAdOZXRGcmVlMRUwEwYDVQQLDAxuZXRmcmVlLmxpbmsx
HDAaBgNVBAMME05ldEZyZWUgU2lnbiwgQmV6ZXEwHhcNMjIwNjAxMTk1NTIxWhcN
MzIwNTI5MTk1NTIxWjB5MQswCQYDVQQGEwJJTDEPMA0GA1UECAwGaXNyYWVsMRIw
EAYDVQQHDAlKZXJ1c2FsZW0xEDAOBgNVBAoMB05ldEZyZWUxFTATBgNVBAsMDG5l
dGZyZWUubGluazEcMBoGA1UEAwwTTmV0RnJlZSBTaWduLCBCZXplcTCCAiIwDQYJ
KoZIhvcNAQEBBQADggIPADCCAgoCggIBANipYPeTK3GJ9BpwEpEGE/hzB8MlD+Rs
hw4tTWWRtZC0ok9kY/jmWJSzRMP4jKbOPtKkiUNNd3l2SvgvrHPuMz/R9B728wK2
ZYS295KTRDSgM51e+gCfziUXR36mCCvjuLmRdVbsXrAJjAtlPN1SD9eFDtMx6Pm8
LfSK6HyVF4Igafq8el6x9lSdfGqWWxWjuBaO6ooNUoIORYOLOQezMHRG1vfabx58
aEKZSN+bvEPmf4m1RXu4ynevE8aEQBHsr/4X7sU7hRXXrxLkS5qJSeqbfS+tp36a
HaVA8APRradFLvZa9ejAli8WAwwdw2r6AATQ3mmuIcaZUeC954HPgUwaz97wE2zo
GMbsX7bE9oEyLRT8sDV+dvN8MEXvt2XWx4icHLuycqxOGzZKkjmP73qMdeZw+mxW
xBk8H7pCWBQsJ5z0xxtir5kBVUqPSdmAOsz3FLhRyW8JB09JurZc3czxaCrVT7oS
MGIj+koFIYlbQqudwBTPF3hUBlgvS3PA339YHD6H8Fncj20tb2MxQ6jb5IDnFvY/
dc36sSauiUCzwPJM1FHDmaJDQcj7r2EArWDxZrWL1Zt99xf3yQQFUWh8+BMOba9M
x1E6XWfhVGlhS9yks0DwOKktO+rZwO3fVTVprWvnzFOWmpHAzvLxfiS5blseebAM
3+S4PGQiCHJBAgMBAAGjUzBRMB0GA1UdDgQWBBSFbv9UhQwCMY5hdYElGT2uCS2g
PTAfBgNVHSMEGDAWgBSFbv9UhQwCMY5hdYElGT2uCS2gPTAPBgNVHRMBAf8EBTAD
AQH/MA0GCSqGSIb3DQEBCwUAA4ICAQB5FmjWgu11dysbxacJO5uLYQ/UVipSFAsl
s/x04NRHona1UpOLGt6y70Q4XjkLnabeYc+x5g1UUr6BzDjXb4CG/FLjGhNP4zPE
xL9bUXpVThFHyO1LrsnbSLfIJZZ4CRvPmx0vbK0G9p23PTNCv7RFqDfqfA1P0z/g
X1n8SatOauOefsM94AihODwoOWLFsl14YnYp99V1f7ChrqZ4GKzgb0M+COJLOAIV
Ur6qaa5eqKf8jIw08xbZy19K4jgOEGIDifmoAtYEpCwIzH9VPeDqdcaBGuc+uZUp
9mxgIbJk0qgaPmu25TM12x66YeZZvPgeOycl2dzMTIwPvw3TfNzrio7tPRk5GEcT
3KzngfFpvQyros/kYQMKMPYL5hssRae4aDGr9sS1D4LR31hhopQ0+w4y/+kQJDbB
JCkUP87ae6mtNW4sCXaStWaZZzomonEAxNkh4sfBMT5wVsglU236k/yN5n7Ib/mL
yGUBs6lzMdcScG+Ath4cwtxNnC3m2g8w8/MYAf/+wBL/A8r2GAPTqLvfjtEzH621
b1Yw4//rSJg5ZpO1IGBFIVBFImBHOpHrjigPEJECiUS3y0jKUNyymo66QqRHwl1Y
71gRskGUK6tyfO45ZiLH8r8m7NR1wXBmAAmtOtdzi5H2ahVRNrW/zrfS7ttASJB5
20p8M55zUw==
-----END CERTIFICATE-----
Certificate:
    Data:
        Version: 3 (0x2)
        Serial Number:
            68:7e:54:fa:88:18:f0:c9:9d:95:eb:d6:64:62:aa:9e:07:bd:18:a4
        Signature Algorithm: sha256WithRSAEncryption
        Issuer: C = IL, ST = israel, L = Jerusalem, O = NetFree, OU = netfree.link, CN = "NetFree Sign, Bezeq"
        Validity
            Not Before: Jun  1 19:55:21 2022 GMT
            Not After : May 29 19:55:21 2032 GMT
        Subject: C = IL, ST = israel, L = Jerusalem, O = NetFree, OU = netfree.link, CN = "NetFree Sign, Bezeq"
        Subject Public Key Info:
            Public Key Algorithm: rsaEncryption
                RSA Public-Key: (4096 bit)
                Modulus:
                    00:d8:a9:60:f7:93:2b:71:89:f4:1a:70:12:91:06:
                    13:f8:73:07:c3:25:0f:e4:6c:87:0e:2d:4d:65:91:
                    b5:90:b4:a2:4f:64:63:f8:e6:58:94:b3:44:c3:f8:
                    8c:a6:ce:3e:d2:a4:89:43:4d:77:79:76:4a:f8:2f:
                    ac:73:ee:33:3f:d1:f4:1e:f6:f3:02:b6:65:84:b6:
                    f7:92:93:44:34:a0:33:9d:5e:fa:00:9f:ce:25:17:
                    47:7e:a6:08:2b:e3:b8:b9:91:75:56:ec:5e:b0:09:
                    8c:0b:65:3c:dd:52:0f:d7:85:0e:d3:31:e8:f9:bc:
                    2d:f4:8a:e8:7c:95:17:82:20:69:fa:bc:7a:5e:b1:
                    f6:54:9d:7c:6a:96:5b:15:a3:b8:16:8e:ea:8a:0d:
                    52:82:0e:45:83:8b:39:07:b3:30:74:46:d6:f7:da:
                    6f:1e:7c:68:42:99:48:df:9b:bc:43:e6:7f:89:b5:
                    45:7b:b8:ca:77:af:13:c6:84:40:11:ec:af:fe:17:
                    ee:c5:3b:85:15:d7:af:12:e4:4b:9a:89:49:ea:9b:
                    7d:2f:ad:a7:7e:9a:1d:a5:40:f0:03:d1:ad:a7:45:
                    2e:f6:5a:f5:e8:c0:96:2f:16:03:0c:1d:c3:6a:fa:
                    00:04:d0:de:69:ae:21:c6:99:51:e0:bd:e7:81:cf:
                    81:4c:1a:cf:de:f0:13:6c:e8:18:c6:ec:5f:b6:c4:
                    f6:81:32:2d:14:fc:b0:35:7e:76:f3:7c:30:45:ef:
                    b7:65:d6:c7:88:9c:1c:bb:b2:72:ac:4e:1b:36:4a:
                    92:39:8f:ef:7a:8c:75:e6:70:fa:6c:56:c4:19:3c:
                    1f:ba:42:58:14:2c:27:9c:f4:c7:1b:62:af:99:01:
                    55:4a:8f:49:d9:80:3a:cc:f7:14:b8:51:c9:6f:09:
                    07:4f:49:ba:b6:5c:dd:cc:f1:68:2a:d5:4f:ba:12:
                    30:62:23:fa:4a:05:21:89:5b:42:ab:9d:c0:14:cf:
                    17:78:54:06:58:2f:4b:73:c0:df:7f:58:1c:3e:87:
                    f0:59:dc:8f:6d:2d:6f:63:31:43:a8:db:e4:80:e7:
                    16:f6:3f:75:cd:fa:b1:26:ae:89:40:b3:c0:f2:4c:
                    d4:51:c3:99:a2:43:41:c8:fb:af:61:00:ad:60:f1:
                    66:b5:8b:d5:9b:7d:f7:17:f7:c9:04:05:51:68:7c:
                    f8:13:0e:6d:af:4c:c7:51:3a:5d:67:e1:54:69:61:
                    4b:dc:a4:b3:40:f0:38:a9:2d:3b:ea:d9:c0:ed:df:
                    55:35:69:ad:6b:e7:cc:53:96:9a:91:c0:ce:f2:f1:
                    7e:24:b9:6e:5b:1e:79:b0:0c:df:e4:b8:3c:64:22:
                    08:72:41
                Exponent: 65537 (0x10001)
        X509v3 extensions:
            X509v3 Subject Key Identifier: 
                85:6E:FF:54:85:0C:02:31:8E:61:75:81:25:19:3D:AE:09:2D:A0:3D
            X509v3 Authority Key Identifier: 
                keyid:85:6E:FF:54:85:0C:02:31:8E:61:75:81:25:19:3D:AE:09:2D:A0:3D

            X509v3 Basic Constraints: critical
                CA:TRUE
    Signature Algorithm: sha256WithRSAEncryption
         79:16:68:d6:82:ed:75:77:2b:1b:c5:a7:09:3b:9b:8b:61:0f:
         d4:56:2a:52:14:0b:25:b3:fc:74:e0:d4:47:a2:76:b5:52:93:
         8b:1a:de:b2:ef:44:38:5e:39:0b:9d:a6:de:61:cf:b1:e6:0d:
         54:52:be:81:cc:38:d7:6f:80:86:fc:52:e3:1a:13:4f:e3:33:
         c4:c4:bf:5b:51:7a:55:4e:11:47:c8:ed:4b:ae:c9:db:48:b7:
         c8:25:96:78:09:1b:cf:9b:1d:2f:6c:ad:06:f6:9d:b7:3d:33:
         42:bf:b4:45:a8:37:ea:7c:0d:4f:d3:3f:e0:5f:59:fc:49:ab:
         4e:6a:e3:9e:7e:c3:3d:e0:08:a1:38:3c:28:39:62:c5:b2:5d:
         78:62:76:29:f7:d5:75:7f:b0:a1:ae:a6:78:18:ac:e0:6f:43:
         3e:08:e2:4b:38:02:15:52:be:aa:69:ae:5e:a8:a7:fc:8c:8c:
         34:f3:16:d9:cb:5f:4a:e2:38:0e:10:62:03:89:f9:a8:02:d6:
         04:a4:2c:08:cc:7f:55:3d:e0:ea:75:c6:81:1a:e7:3e:b9:95:
         29:f6:6c:60:21:b2:64:d2:a8:1a:3e:6b:b6:e5:33:35:db:1e:
         ba:61:e6:59:bc:f8:1e:3b:27:25:d9:dc:cc:4c:8c:0f:bf:0d:
         d3:7c:dc:eb:8a:8e:ed:3d:19:39:18:47:13:dc:ac:e7:81:f1:
         69:bd:0c:ab:a2:cf:e4:61:03:0a:30:f6:0b:e6:1b:2c:45:a7:
         b8:68:31:ab:f6:c4:b5:0f:82:d1:df:58:61:a2:94:34:fb:0e:
         32:ff:e9:10:24:36:c1:24:29:14:3f:ce:da:7b:a9:ad:35:6e:
         2c:09:76:92:b5:66:99:67:3a:26:a2:71:00:c4:d9:21:e2:c7:
         c1:31:3e:70:56:c8:25:53:6d:fa:93:fc:8d:e6:7e:c8:6f:f9:
         8b:c8:65:01:b3:a9:73:31:d7:12:70:6f:80:b6:1e:1c:c2:dc:
         4d:9c:2d:e6:da:0f:30:f3:f3:18:01:ff:fe:c0:12:ff:03:ca:
         f6:18:03:d3:a8:bb:df:8e:d1:33:1f:ad:b5:6f:56:30:e3:ff:
         eb:48:98:39:66:93:b5:20:60:45:21:50:45:22:60:47:3a:91:
         eb:8e:28:0f:10:91:02:89:44:b7:cb:48:ca:50:dc:b2:9a:8e:
         ba:42:a4:47:c2:5d:58:ef:58:11:b2:41:94:2b:ab:72:7c:ee:
         39:66:22:c7:f2:bf:26:ec:d4:75:c1:70:66:00:09:ad:3a:d7:
         73:8b:91:f6:6a:15:51:36:b5:bf:ce:b7:d2:ee:db:40:48:90:
         79:db:4a:7c:33:9e:73:53
