-----BEGIN CERTIFICATE-----
MIIDzTCCArWgAwIBAgIJAM/zhl8GVAzYMA0GCSqGSIb3DQEBCwUAMH0xCzAJBgNV
BAYTAklMMQ8wDQYDVQQIDAZpc3JhZWwxEjAQBgNVBAcMCUplcnVzYWxlbTEQMA4G
A1UECgwHTmV0RnJlZTEVMBMGA1UECwwMbmV0ZnJlZS5saW5rMSAwHgYDVQQDDBdO
ZXRGcmVlIFNpZ24sIEhvdE1vYmlsZTAeFw0xNjA3MTMxMTM5MzZaFw0yNjA1MjIx
MTM5MzZaMH0xCzAJBgNVBAYTAklMMQ8wDQYDVQQIDAZpc3JhZWwxEjAQBgNVBAcM
CUplcnVzYWxlbTEQMA4GA1UECgwHTmV0RnJlZTEVMBMGA1UECwwMbmV0ZnJlZS5s
aW5rMSAwHgYDVQQDDBdOZXRGcmVlIFNpZ24sIEhvdE1vYmlsZTCCASIwDQYJKoZI
hvcNAQEBBQADggEPADCCAQoCggEBAK36bGJixwgMX5twmmteI3j+8JfR5XdOSN6N
MLLsQuR7/LUXMbCBB5WNDGoF823rDbiIZwuqoH4JVN3I4BNitl0QzB2wlTLzEkMr
Db9sA6owahQwhh+m1yNovM3luSlt7eJS8yWUMNgp8gPxWV1j3RBGASHRKuzU2btg
I7WZoD5vNX2VrdrN+TxbRsrRHbMZhmv2Q8v4vNf1bwma64VyT+VDALx0V6HSjSnP
XMBvY0qtsqQILt53nTrtbTyat1oJaAcaeF/oSi+ibcRqRD0RQjPokD7ZBEIzx7b4
5YD4bsdr9WbSMjaa6DMDC0Zr/1MavLJu5DqO9hMljKfxb5HMcB8CAwEAAaNQME4w
HQYDVR0OBBYEFLRpqEWnXat8cUzbZ2r+LdeBMj+mMB8GA1UdIwQYMBaAFLRpqEWn
Xat8cUzbZ2r+LdeBMj+mMAwGA1UdEwQFMAMBAf8wDQYJKoZIhvcNAQELBQADggEB
ADXTOVrk1BbXQiCbPUX0eWOskyu+Nq4uJONFhrhBiKwG/leMd+fKjtbj5avVh81B
1NmHojzlls/kWcI4bjfqkKpv1eXKlrRA334BoLxGj7u4dbzgNfCNhE96lA6qIW+6
m6BkpYESXc06RX41RVWzYyOJX6foSv8aqdo1aICy+LvBtXewKQixDbGFNqSmSLB5
UHcrwjgOK8aWXvaJe2mJAV91HKhfgSFkFsokrVveaP985ej3s59si4htKbI9Qqx0
ZBMJdfklpqI1fDdL4cDNssX6kNus+gnJzP0tQW00DMH6V6OIqYrL/CJRJx4634yT
ddo6lzNM9hZhrtlM/czjLn8=
-----END CERTIFICATE-----
Certificate:
    Data:
        Version: 3 (0x2)
        Serial Number:
            cf:f3:86:5f:06:54:0c:d8
        Signature Algorithm: sha256WithRSAEncryption
        Issuer: C = IL, ST = israel, L = Jerusalem, O = NetFree, OU = netfree.link, CN = "NetFree Sign, HotMobile"
        Validity
            Not Before: Jul 13 11:39:36 2016 GMT
            Not After : May 22 11:39:36 2026 GMT
        Subject: C = IL, ST = israel, L = Jerusalem, O = NetFree, OU = netfree.link, CN = "NetFree Sign, HotMobile"
        Subject Public Key Info:
            Public Key Algorithm: rsaEncryption
                RSA Public-Key: (2048 bit)
                Modulus:
                    00:ad:fa:6c:62:62:c7:08:0c:5f:9b:70:9a:6b:5e:
                    23:78:fe:f0:97:d1:e5:77:4e:48:de:8d:30:b2:ec:
                    42:e4:7b:fc:b5:17:31:b0:81:07:95:8d:0c:6a:05:
                    f3:6d:eb:0d:b8:88:67:0b:aa:a0:7e:09:54:dd:c8:
                    e0:13:62:b6:5d:10:cc:1d:b0:95:32:f3:12:43:2b:
                    0d:bf:6c:03:aa:30:6a:14:30:86:1f:a6:d7:23:68:
                    bc:cd:e5:b9:29:6d:ed:e2:52:f3:25:94:30:d8:29:
                    f2:03:f1:59:5d:63:dd:10:46:01:21:d1:2a:ec:d4:
                    d9:bb:60:23:b5:99:a0:3e:6f:35:7d:95:ad:da:cd:
                    f9:3c:5b:46:ca:d1:1d:b3:19:86:6b:f6:43:cb:f8:
                    bc:d7:f5:6f:09:9a:eb:85:72:4f:e5:43:00:bc:74:
                    57:a1:d2:8d:29:cf:5c:c0:6f:63:4a:ad:b2:a4:08:
                    2e:de:77:9d:3a:ed:6d:3c:9a:b7:5a:09:68:07:1a:
                    78:5f:e8:4a:2f:a2:6d:c4:6a:44:3d:11:42:33:e8:
                    90:3e:d9:04:42:33:c7:b6:f8:e5:80:f8:6e:c7:6b:
                    f5:66:d2:32:36:9a:e8:33:03:0b:46:6b:ff:53:1a:
                    bc:b2:6e:e4:3a:8e:f6:13:25:8c:a7:f1:6f:91:cc:
                    70:1f
                Exponent: 65537 (0x10001)
        X509v3 extensions:
            X509v3 Subject Key Identifier: 
                B4:69:A8:45:A7:5D:AB:7C:71:4C:DB:67:6A:FE:2D:D7:81:32:3F:A6
            X509v3 Authority Key Identifier: 
                keyid:B4:69:A8:45:A7:5D:AB:7C:71:4C:DB:67:6A:FE:2D:D7:81:32:3F:A6

            X509v3 Basic Constraints: 
                CA:TRUE
    Signature Algorithm: sha256WithRSAEncryption
         35:d3:39:5a:e4:d4:16:d7:42:20:9b:3d:45:f4:79:63:ac:93:
         2b:be:36:ae:2e:24:e3:45:86:b8:41:88:ac:06:fe:57:8c:77:
         e7:ca:8e:d6:e3:e5:ab:d5:87:cd:41:d4:d9:87:a2:3c:e5:96:
         cf:e4:59:c2:38:6e:37:ea:90:aa:6f:d5:e5:ca:96:b4:40:df:
         7e:01:a0:bc:46:8f:bb:b8:75:bc:e0:35:f0:8d:84:4f:7a:94:
         0e:aa:21:6f:ba:9b:a0:64:a5:81:12:5d:cd:3a:45:7e:35:45:
         55:b3:63:23:89:5f:a7:e8:4a:ff:1a:a9:da:35:68:80:b2:f8:
         bb:c1:b5:77:b0:29:08:b1:0d:b1:85:36:a4:a6:48:b0:79:50:
         77:2b:c2:38:0e:2b:c6:96:5e:f6:89:7b:69:89:01:5f:75:1c:
         a8:5f:81:21:64:16:ca:24:ad:5b:de:68:ff:7c:e5:e8:f7:b3:
         9f:6c:8b:88:6d:29:b2:3d:42:ac:74:64:13:09:75:f9:25:a6:
         a2:35:7c:37:4b:e1:c0:cd:b2:c5:fa:90:db:ac:fa:09:c9:cc:
         fd:2d:41:6d:34:0c:c1:fa:57:a3:88:a9:8a:cb:fc:22:51:27:
         1e:3a:df:8c:93:75:da:3a:97:33:4c:f6:16:61:ae:d9:4c:fd:
         cc:e3:2e:7f
