-----BEGIN CERTIFICATE-----
MIIDzzCCAregAwIBAgIJANJjV3HuLlVqMA0GCSqGSIb3DQEBCwUAMH4xCzAJBgNV
BAYTAklMMQ8wDQYDVQQIDAZpc3JhZWwxEjAQBgNVBAcMCWplcnVzYWxlbTEQMA4G
A1UECgwHTmV0RnJlZTEZMBcGA1UECwwQbmV0ZnJlZS42MTNtLm9yZzEdMBsGA1UE
AwwUTmV0RnJlZSBTaWduICxSTCBJU1AwHhcNMTQxMTE1MjMxNjU0WhcNMjQwOTIz
MjMxNjU0WjB+MQswCQYDVQQGEwJJTDEPMA0GA1UECAwGaXNyYWVsMRIwEAYDVQQH
DAlqZXJ1c2FsZW0xEDAOBgNVBAoMB05ldEZyZWUxGTAXBgNVBAsMEG5ldGZyZWUu
NjEzbS5vcmcxHTAbBgNVBAMMFE5ldEZyZWUgU2lnbiAsUkwgSVNQMIIBIjANBgkq
hkiG9w0BAQEFAAOCAQ8AMIIBCgKCAQEA2gEv5S0YJFYrWSNJJNhtBRN9IfyFhh/l
NCo2K8DKkq3CFCthHADZu1v9gRAa9NxC7wrsmK/wBTwoVwcHKrxrmxt/vs6bwZZ7
9/TwKDA9Ar3SY6bvsDvij0/53frRoAhUJwdFkwlkIN0DNJWv8n3xAoIRBI3pOxcE
890Q2RDw+ydc4OIgETIel3vDqe7aTXTjb7BJjqIYTf9Wad3gmTGpRToNhC0kyQuk
MN2XxYHhK/+jjoL/O9vcd3ZLaYlYbQbT/Ud63CfIyvB+ASkqnRGFBIQttkzVrPHP
fRkhM+C6BlRfv0njt9Hl5jJjreWXSryd5iSwVVU6VtHo6TZFtUwA/wIDAQABo1Aw
TjAdBgNVHQ4EFgQUG9R/R+XGIIaXGs74B2+JNqoka7kwHwYDVR0jBBgwFoAUG9R/
R+XGIIaXGs74B2+JNqoka7kwDAYDVR0TBAUwAwEB/zANBgkqhkiG9w0BAQsFAAOC
AQEAQh9Id5A0LvTu4yCqM8rrP1mpEBKv4XjMWihR9gZ6fBY8NkyWBfyQkylc6Jlm
vrtFH4etuQkElN7tL1ZAyXAmOVnXB19asft/swA+UGEpdqmdIJiz+Q9KSP4c64Xw
L9svsOqBouiBYPWpURO0AJVk42lmXVGopGcet8hzMmmBejlCbDWi7mu+RJEMIMkp
g6cITc6m/Hrawt3oRxfyERKdoXUpTtTV5Cu4oHLwgcdMbp7IvHJO1SS5fP8OhObN
9aVsHN+TzDsXZqkvYn/Tn4fO4YtUdokCSzc39caq9ZiwqUpD0dSOYDotlIIXmzxE
OmymXu+SCGzKmR72vZouU0NuTw==
-----END CERTIFICATE-----
Certificate:
    Data:
        Version: 3 (0x2)
        Serial Number:
            d2:63:57:71:ee:2e:55:6a
        Signature Algorithm: sha256WithRSAEncryption
        Issuer: C = IL, ST = israel, L = jerusalem, O = NetFree, OU = netfree.613m.org, CN = "NetFree Sign ,RL ISP"
        Validity
            Not Before: Nov 15 23:16:54 2014 GMT
            Not After : Sep 23 23:16:54 2024 GMT
        Subject: C = IL, ST = israel, L = jerusalem, O = NetFree, OU = netfree.613m.org, CN = "NetFree Sign ,RL ISP"
        Subject Public Key Info:
            Public Key Algorithm: rsaEncryption
                RSA Public-Key: (2048 bit)
                Modulus:
                    00:da:01:2f:e5:2d:18:24:56:2b:59:23:49:24:d8:
                    6d:05:13:7d:21:fc:85:86:1f:e5:34:2a:36:2b:c0:
                    ca:92:ad:c2:14:2b:61:1c:00:d9:bb:5b:fd:81:10:
                    1a:f4:dc:42:ef:0a:ec:98:af:f0:05:3c:28:57:07:
                    07:2a:bc:6b:9b:1b:7f:be:ce:9b:c1:96:7b:f7:f4:
                    f0:28:30:3d:02:bd:d2:63:a6:ef:b0:3b:e2:8f:4f:
                    f9:dd:fa:d1:a0:08:54:27:07:45:93:09:64:20:dd:
                    03:34:95:af:f2:7d:f1:02:82:11:04:8d:e9:3b:17:
                    04:f3:dd:10:d9:10:f0:fb:27:5c:e0:e2:20:11:32:
                    1e:97:7b:c3:a9:ee:da:4d:74:e3:6f:b0:49:8e:a2:
                    18:4d:ff:56:69:dd:e0:99:31:a9:45:3a:0d:84:2d:
                    24:c9:0b:a4:30:dd:97:c5:81:e1:2b:ff:a3:8e:82:
                    ff:3b:db:dc:77:76:4b:69:89:58:6d:06:d3:fd:47:
                    7a:dc:27:c8:ca:f0:7e:01:29:2a:9d:11:85:04:84:
                    2d:b6:4c:d5:ac:f1:cf:7d:19:21:33:e0:ba:06:54:
                    5f:bf:49:e3:b7:d1:e5:e6:32:63:ad:e5:97:4a:bc:
                    9d:e6:24:b0:55:55:3a:56:d1:e8:e9:36:45:b5:4c:
                    00:ff
                Exponent: 65537 (0x10001)
        X509v3 extensions:
            X509v3 Subject Key Identifier: 
                1B:D4:7F:47:E5:C6:20:86:97:1A:CE:F8:07:6F:89:36:AA:24:6B:B9
            X509v3 Authority Key Identifier: 
                keyid:1B:D4:7F:47:E5:C6:20:86:97:1A:CE:F8:07:6F:89:36:AA:24:6B:B9

            X509v3 Basic Constraints: 
                CA:TRUE
    Signature Algorithm: sha256WithRSAEncryption
         42:1f:48:77:90:34:2e:f4:ee:e3:20:aa:33:ca:eb:3f:59:a9:
         10:12:af:e1:78:cc:5a:28:51:f6:06:7a:7c:16:3c:36:4c:96:
         05:fc:90:93:29:5c:e8:99:66:be:bb:45:1f:87:ad:b9:09:04:
         94:de:ed:2f:56:40:c9:70:26:39:59:d7:07:5f:5a:b1:fb:7f:
         b3:00:3e:50:61:29:76:a9:9d:20:98:b3:f9:0f:4a:48:fe:1c:
         eb:85:f0:2f:db:2f:b0:ea:81:a2:e8:81:60:f5:a9:51:13:b4:
         00:95:64:e3:69:66:5d:51:a8:a4:67:1e:b7:c8:73:32:69:81:
         7a:39:42:6c:35:a2:ee:6b:be:44:91:0c:20:c9:29:83:a7:08:
         4d:ce:a6:fc:7a:da:c2:dd:e8:47:17:f2:11:12:9d:a1:75:29:
         4e:d4:d5:e4:2b:b8:a0:72:f0:81:c7:4c:6e:9e:c8:bc:72:4e:
         d5:24:b9:7c:ff:0e:84:e6:cd:f5:a5:6c:1c:df:93:cc:3b:17:
         66:a9:2f:62:7f:d3:9f:87:ce:e1:8b:54:76:89:02:4b:37:37:
         f5:c6:aa:f5:98:b0:a9:4a:43:d1:d4:8e:60:3a:2d:94:82:17:
         9b:3c:44:3a:6c:a6:5e:ef:92:08:6c:ca:99:1e:f6:bd:9a:2e:
         53:43:6e:4f
