-----BEGIN CERTIFICATE-----
MIID3TCCAsWgAwIBAgIJALT9ZoUCwnlMMA0GCSqGSIb3DQEBCwUAMIGEMQswCQYD
VQQGEwJJTDEPMA0GA1UECAwGaXNyYWVsMRIwEAYDVQQHDAlKZXJ1c2FsZW0xEDAO
BgNVBAoMB05ldEZyZWUxFTATBgNVBAsMDG5ldGZyZWUubGluazEnMCUGA1UEAwwe
TmV0RnJlZSBTaWduICwgTmV0RnJlZUFueXdoZXJlMB4XDTE2MDQwNTE1MTc0MVoX
DTI2MDIxMjE1MTc0MVowgYQxCzAJBgNVBAYTAklMMQ8wDQYDVQQIDAZpc3JhZWwx
EjAQBgNVBAcMCUplcnVzYWxlbTEQMA4GA1UECgwHTmV0RnJlZTEVMBMGA1UECwwM
bmV0ZnJlZS5saW5rMScwJQYDVQQDDB5OZXRGcmVlIFNpZ24gLCBOZXRGcmVlQW55
d2hlcmUwggEiMA0GCSqGSIb3DQEBAQUAA4IBDwAwggEKAoIBAQC19KPegpnTrYAJ
m3ZWQ/vEL3rAXBE89jFcDU7xYmRgeEI+CKD+U5exLTmD7w0pQVM45HghlufWL0uy
pPYBR0YL6PbvFzskTnlaQuZBbwBsqf7hrAh7gA3nWintID50L8xtHKiRiLfK+NnM
//iQ03uwkwLT2xaUMvw7IbZcrHlwTfN6fxvvfhnCIE/Tnjz2p3aQI6ZmrD6rwZLm
oX2TGXQGCteOpM0gpn3gi/q30qzMsgCQ6YfeATzjGFe2rMM6Gy66HjNEzO5w6i7W
mG57upSNCTIgKjjwtGlZMg53jVqlfuMuZbZO7OwyatpcuV3KgtER5H8HuQboaZ4v
IYAA+0IZAgMBAAGjUDBOMB0GA1UdDgQWBBQR8hgc1nsIVVnUyF3uhivwht7AzDAf
BgNVHSMEGDAWgBQR8hgc1nsIVVnUyF3uhivwht7AzDAMBgNVHRMEBTADAQH/MA0G
CSqGSIb3DQEBCwUAA4IBAQCOBLgAhZGzGCKvXLbITDrZIC4Oh4sBD4geGnlcO8Rt
10JLn9lgW0SnYfMoX2ZOayiwlEltF7PB2dYiGk9+7vDjzpChp5HBDLSTJpCdJ5lc
AWEyTjGw9z7cfUUnGJtCaNDPvaLjcvi4KELyAyn3HejwPMcG+F1wyCjwWKoo0MX7
ac+/qnp50nUcPYGnPS2hKoMp8tVkC56q9h7KU9AfY001b11lnVfeJynDuMKWivgw
6KOH0YSvWt8/d6DM6MtxMyAxdS5sP7htj8pdBTMcHHfw44663xdsd+9nvlaSXDNR
aq71pK24e7eEg0zZQEJ8L6finDIQAx8jt6kse1uVZW50
-----END CERTIFICATE-----
Certificate:
    Data:
        Version: 3 (0x2)
        Serial Number:
            b4:fd:66:85:02:c2:79:4c
        Signature Algorithm: sha256WithRSAEncryption
        Issuer: C = IL, ST = israel, L = Jerusalem, O = NetFree, OU = netfree.link, CN = "NetFree Sign , NetFreeAnywhere"
        Validity
            Not Before: Apr  5 15:17:41 2016 GMT
            Not After : Feb 12 15:17:41 2026 GMT
        Subject: C = IL, ST = israel, L = Jerusalem, O = NetFree, OU = netfree.link, CN = "NetFree Sign , NetFreeAnywhere"
        Subject Public Key Info:
            Public Key Algorithm: rsaEncryption
                RSA Public-Key: (2048 bit)
                Modulus:
                    00:b5:f4:a3:de:82:99:d3:ad:80:09:9b:76:56:43:
                    fb:c4:2f:7a:c0:5c:11:3c:f6:31:5c:0d:4e:f1:62:
                    64:60:78:42:3e:08:a0:fe:53:97:b1:2d:39:83:ef:
                    0d:29:41:53:38:e4:78:21:96:e7:d6:2f:4b:b2:a4:
                    f6:01:47:46:0b:e8:f6:ef:17:3b:24:4e:79:5a:42:
                    e6:41:6f:00:6c:a9:fe:e1:ac:08:7b:80:0d:e7:5a:
                    29:ed:20:3e:74:2f:cc:6d:1c:a8:91:88:b7:ca:f8:
                    d9:cc:ff:f8:90:d3:7b:b0:93:02:d3:db:16:94:32:
                    fc:3b:21:b6:5c:ac:79:70:4d:f3:7a:7f:1b:ef:7e:
                    19:c2:20:4f:d3:9e:3c:f6:a7:76:90:23:a6:66:ac:
                    3e:ab:c1:92:e6:a1:7d:93:19:74:06:0a:d7:8e:a4:
                    cd:20:a6:7d:e0:8b:fa:b7:d2:ac:cc:b2:00:90:e9:
                    87:de:01:3c:e3:18:57:b6:ac:c3:3a:1b:2e:ba:1e:
                    33:44:cc:ee:70:ea:2e:d6:98:6e:7b:ba:94:8d:09:
                    32:20:2a:38:f0:b4:69:59:32:0e:77:8d:5a:a5:7e:
                    e3:2e:65:b6:4e:ec:ec:32:6a:da:5c:b9:5d:ca:82:
                    d1:11:e4:7f:07:b9:06:e8:69:9e:2f:21:80:00:fb:
                    42:19
                Exponent: 65537 (0x10001)
        X509v3 extensions:
            X509v3 Subject Key Identifier: 
                11:F2:18:1C:D6:7B:08:55:59:D4:C8:5D:EE:86:2B:F0:86:DE:C0:CC
            X509v3 Authority Key Identifier: 
                keyid:11:F2:18:1C:D6:7B:08:55:59:D4:C8:5D:EE:86:2B:F0:86:DE:C0:CC

            X509v3 Basic Constraints: 
                CA:TRUE
    Signature Algorithm: sha256WithRSAEncryption
         8e:04:b8:00:85:91:b3:18:22:af:5c:b6:c8:4c:3a:d9:20:2e:
         0e:87:8b:01:0f:88:1e:1a:79:5c:3b:c4:6d:d7:42:4b:9f:d9:
         60:5b:44:a7:61:f3:28:5f:66:4e:6b:28:b0:94:49:6d:17:b3:
         c1:d9:d6:22:1a:4f:7e:ee:f0:e3:ce:90:a1:a7:91:c1:0c:b4:
         93:26:90:9d:27:99:5c:01:61:32:4e:31:b0:f7:3e:dc:7d:45:
         27:18:9b:42:68:d0:cf:bd:a2:e3:72:f8:b8:28:42:f2:03:29:
         f7:1d:e8:f0:3c:c7:06:f8:5d:70:c8:28:f0:58:aa:28:d0:c5:
         fb:69:cf:bf:aa:7a:79:d2:75:1c:3d:81:a7:3d:2d:a1:2a:83:
         29:f2:d5:64:0b:9e:aa:f6:1e:ca:53:d0:1f:63:4d:35:6f:5d:
         65:9d:57:de:27:29:c3:b8:c2:96:8a:f8:30:e8:a3:87:d1:84:
         af:5a:df:3f:77:a0:cc:e8:cb:71:33:20:31:75:2e:6c:3f:b8:
         6d:8f:ca:5d:05:33:1c:1c:77:f0:e3:8e:ba:df:17:6c:77:ef:
         67:be:56:92:5c:33:51:6a:ae:f5:a4:ad:b8:7b:b7:84:83:4c:
         d9:40:42:7c:2f:a7:e2:9c:32:10:03:1f:23:b7:a9:2c:7b:5b:
         95:65:6e:74
