-----BEGIN CERTIFICATE-----
MIIDxzCCAq+gAwIBAgIJAI2ViHiNxvW8MA0GCSqGSIb3DQEBCwUAMHoxCzAJBgNV
BAYTAklMMQ8wDQYDVQQIDAZpc3JhZWwxEjAQBgNVBAcMCUplcnVzYWxlbTEQMA4G
A1UECgwHTmV0RnJlZTEVMBMGA1UECwwMbmV0ZnJlZS5saW5rMR0wGwYDVQQDDBRO
ZXRGcmVlIFNpZ24gLCB4Mm9uZTAeFw0xNjAzMTMxNjM1MjFaFw0yNjAxMjAxNjM1
MjFaMHoxCzAJBgNVBAYTAklMMQ8wDQYDVQQIDAZpc3JhZWwxEjAQBgNVBAcMCUpl
cnVzYWxlbTEQMA4GA1UECgwHTmV0RnJlZTEVMBMGA1UECwwMbmV0ZnJlZS5saW5r
MR0wGwYDVQQDDBROZXRGcmVlIFNpZ24gLCB4Mm9uZTCCASIwDQYJKoZIhvcNAQEB
BQADggEPADCCAQoCggEBALCFuiEa8k1KjSdvAUUXywlvxFUKP4hD2BrY0dvWK0xe
WnKO7jHpDK88Dv3+2aa15c09ULKLqw6NDg3zPo1Tzb6hJs2nuI5dXbmoKA8QRQr1
ny6JNi4LxAle6LTNqcAw+jsONmyx62vDXpRAHTNsguBdqbKZZp/8jLm9aNg0uvbn
g/E6gvUrwCylidcL3fQ3GiZsjj2RgzUITtLG2gCtHdAv87c5OJOw1tONv4Yfayxk
uG1n+4Z3eKzsDIbO7wbnWypcI/lod9xGub0st3YWjdxp10N2x5EYLgfwThG03RBk
vdWY1kfrzaL1e1jn0x5yqbdOEwzgZeQQZDmNNpybhlECAwEAAaNQME4wHQYDVR0O
BBYEFCimmwvFnAJ3VrIam6IzW70HpeNHMB8GA1UdIwQYMBaAFCimmwvFnAJ3VrIa
m6IzW70HpeNHMAwGA1UdEwQFMAMBAf8wDQYJKoZIhvcNAQELBQADggEBAKhoWpR6
G4atxcAdzQhA3e9LcyRNBdLvtNeZSSPHBPuxRqXDxRT6QhwdYR/mK9WjcOxdA6mj
m/wwLvOy3sbDFQySUs0Yu+aWn9GsFBBgdJoTwSgnwjY60wQ+/yyWCXIFabVHz7Nw
wepexJVQfz2yfnwfGHo3FCI4526NMwxEzy1Xt17wY4fxFmEusVEKqYKnYsHg2s8K
/4GKabaBpcv7iy3vIsks7mGe5NrgNS4MLACC8+5d3XVoqJeXsbX8usaRFDZrseE4
O3d27X+0kjPAKx8Ztn70VWDbS7Cuic6kKrBXjjEN5OTD60GJ1CCiZp6miyjkTHBq
mRkn51xTIRBX6S0=
-----END CERTIFICATE-----
Certificate:
    Data:
        Version: 3 (0x2)
        Serial Number:
            8d:95:88:78:8d:c6:f5:bc
        Signature Algorithm: sha256WithRSAEncryption
        Issuer: C = IL, ST = israel, L = Jerusalem, O = NetFree, OU = netfree.link, CN = "NetFree Sign , x2one"
        Validity
            Not Before: Mar 13 16:35:21 2016 GMT
            Not After : Jan 20 16:35:21 2026 GMT
        Subject: C = IL, ST = israel, L = Jerusalem, O = NetFree, OU = netfree.link, CN = "NetFree Sign , x2one"
        Subject Public Key Info:
            Public Key Algorithm: rsaEncryption
                RSA Public-Key: (2048 bit)
                Modulus:
                    00:b0:85:ba:21:1a:f2:4d:4a:8d:27:6f:01:45:17:
                    cb:09:6f:c4:55:0a:3f:88:43:d8:1a:d8:d1:db:d6:
                    2b:4c:5e:5a:72:8e:ee:31:e9:0c:af:3c:0e:fd:fe:
                    d9:a6:b5:e5:cd:3d:50:b2:8b:ab:0e:8d:0e:0d:f3:
                    3e:8d:53:cd:be:a1:26:cd:a7:b8:8e:5d:5d:b9:a8:
                    28:0f:10:45:0a:f5:9f:2e:89:36:2e:0b:c4:09:5e:
                    e8:b4:cd:a9:c0:30:fa:3b:0e:36:6c:b1:eb:6b:c3:
                    5e:94:40:1d:33:6c:82:e0:5d:a9:b2:99:66:9f:fc:
                    8c:b9:bd:68:d8:34:ba:f6:e7:83:f1:3a:82:f5:2b:
                    c0:2c:a5:89:d7:0b:dd:f4:37:1a:26:6c:8e:3d:91:
                    83:35:08:4e:d2:c6:da:00:ad:1d:d0:2f:f3:b7:39:
                    38:93:b0:d6:d3:8d:bf:86:1f:6b:2c:64:b8:6d:67:
                    fb:86:77:78:ac:ec:0c:86:ce:ef:06:e7:5b:2a:5c:
                    23:f9:68:77:dc:46:b9:bd:2c:b7:76:16:8d:dc:69:
                    d7:43:76:c7:91:18:2e:07:f0:4e:11:b4:dd:10:64:
                    bd:d5:98:d6:47:eb:cd:a2:f5:7b:58:e7:d3:1e:72:
                    a9:b7:4e:13:0c:e0:65:e4:10:64:39:8d:36:9c:9b:
                    86:51
                Exponent: 65537 (0x10001)
        X509v3 extensions:
            X509v3 Subject Key Identifier: 
                28:A6:9B:0B:C5:9C:02:77:56:B2:1A:9B:A2:33:5B:BD:07:A5:E3:47
            X509v3 Authority Key Identifier: 
                keyid:28:A6:9B:0B:C5:9C:02:77:56:B2:1A:9B:A2:33:5B:BD:07:A5:E3:47

            X509v3 Basic Constraints: 
                CA:TRUE
    Signature Algorithm: sha256WithRSAEncryption
         a8:68:5a:94:7a:1b:86:ad:c5:c0:1d:cd:08:40:dd:ef:4b:73:
         24:4d:05:d2:ef:b4:d7:99:49:23:c7:04:fb:b1:46:a5:c3:c5:
         14:fa:42:1c:1d:61:1f:e6:2b:d5:a3:70:ec:5d:03:a9:a3:9b:
         fc:30:2e:f3:b2:de:c6:c3:15:0c:92:52:cd:18:bb:e6:96:9f:
         d1:ac:14:10:60:74:9a:13:c1:28:27:c2:36:3a:d3:04:3e:ff:
         2c:96:09:72:05:69:b5:47:cf:b3:70:c1:ea:5e:c4:95:50:7f:
         3d:b2:7e:7c:1f:18:7a:37:14:22:38:e7:6e:8d:33:0c:44:cf:
         2d:57:b7:5e:f0:63:87:f1:16:61:2e:b1:51:0a:a9:82:a7:62:
         c1:e0:da:cf:0a:ff:81:8a:69:b6:81:a5:cb:fb:8b:2d:ef:22:
         c9:2c:ee:61:9e:e4:da:e0:35:2e:0c:2c:00:82:f3:ee:5d:dd:
         75:68:a8:97:97:b1:b5:fc:ba:c6:91:14:36:6b:b1:e1:38:3b:
         77:76:ed:7f:b4:92:33:c0:2b:1f:19:b6:7e:f4:55:60:db:4b:
         b0:ae:89:ce:a4:2a:b0:57:8e:31:0d:e4:e4:c3:eb:41:89:d4:
         20:a2:66:9e:a6:8b:28:e4:4c:70:6a:99:19:27:e7:5c:53:21:
         10:57:e9:2d
