-----BEGIN CERTIFICATE-----
MIIF0zCCA7ugAwIBAgIUC+b3kBsjJ33F8+V3PFpQU+h6H0EwDQYJKoZIhvcNAQEL
BQAweTELMAkGA1UEBhMCSUwxDzANBgNVBAgMBmlzcmFlbDESMBAGA1UEBwwJSmVy
dXNhbGVtMRAwDgYDVQQKDAdOZXRGcmVlMRUwEwYDVQQLDAxuZXRmcmVlLmxpbmsx
HDAaBgNVBAMME05ldEZyZWUgU2lnbiAsWW9zc2kwHhcNMTkwODEyMTkwNDE5WhcN
MjkwNjIwMTkwNDE5WjB5MQswCQYDVQQGEwJJTDEPMA0GA1UECAwGaXNyYWVsMRIw
EAYDVQQHDAlKZXJ1c2FsZW0xEDAOBgNVBAoMB05ldEZyZWUxFTATBgNVBAsMDG5l
dGZyZWUubGluazEcMBoGA1UEAwwTTmV0RnJlZSBTaWduICxZb3NzaTCCAiIwDQYJ
KoZIhvcNAQEBBQADggIPADCCAgoCggIBAN93Sx7QkE3PZVE1NylelP86p1oA2zv9
LQBQUiwKkT4Q4gWX8TkyJL/t9AXMxdyxBF31RdNY8DF32ujfowWQdjARB7UhY8Wq
A0YlSbD1RwknRrgt+g5Jq6LpeesKQ2PTp9qGDWVqLIZF8/xBlcJKD/pnNesUdGQ+
zLx6sro/Tme6LvaFNw4vHmfLGPnsBveqA27Vkz6j2Aay3STMWS7DMb/+aYBGUKvy
rZGd4WOXuCY8GkB1apguEFIBRKwWl40bKXgmKqbQSbrfP1Ze5i8kibPUW6cnGkQZ
d5o0GJ+1Vjis6rVULNZTFaoPiWTtZDf3atXtTsVI2MkiUPVJ7yh59OiIFENhPM5Q
zSjaix4cScMMhCagKMIcU4XfqcimZY4EnMqTq+FCPvmBPdUwbZnbkJOFe8lcueiP
k9Wc3xrvskbDILtfq8e0+AGDPa1ZNv+BkXeQG0bEYsvZTSolBXgXwgXJmtlrM0jR
3VzBAJTpzXmYel9o2HWpJcpBwPRjtNPXPrj9bXD6hlFdzMIdt8gx1KRZDXQB0ZJM
LHlIEg89BgByriuhLMZ6/nUKcK5Adjo7hyI+WvQrSsD8dM9bt3jqXTjjhNspnB14
LvpQeJF9AYhXo1YXYnQ3ipveiUt/ib9Y7BbD2zETOnWZZc7+EhUWBN4Q2Ajv5ddn
03zJE08oSiPHAgMBAAGjUzBRMB0GA1UdDgQWBBSZDKHvARiHteEbzaAccd8ZpZUL
mDAfBgNVHSMEGDAWgBSZDKHvARiHteEbzaAccd8ZpZULmDAPBgNVHRMBAf8EBTAD
AQH/MA0GCSqGSIb3DQEBCwUAA4ICAQBiSiaEOJQRzEm8Sa9ig5k8UEuicZRIt0jR
h/rlREa9En559XyxwXGXloFbmiUdlXV26BUtbWYn6J178xZ7B0x9istJq20ZeiZF
ABvv9DjuATbOLao65mowPL68C8R6ynRplVV7HE+zB3CUt4fyGEs/ud9n8DaqQysc
/im40yPqTobBKWJ1RWOrAddyHpQEqdXVxH2EkHTlyvcr9StTN4/pF5iVYeaniXnZ
PXqaEnYoqT9c2q8VAWc2a00dSrmHqw2TGKYJ2cSV8olkcdS6nknBsroQMd6Z8eZs
lGnwC1L4Nu1WJg8ZIy+Umcf0xAwSU3Zs7AhWIph+sO1Tc8iNFSLLotOKEO0xjBrZ
9ierDYZLAVx6XCIiArzgIM0XOwzPKTkwRZ7ip5n4mWx7GxmFJREAvwjRXuWNLZtj
s+IfCshjUfBUymYXn544mhou6uv9TeFQcxJ2RUzNr3xrxCuuriaUOGGBAaqrPpec
r2wWl/hlpjcw606NHbDlLzRUDO4Rwy1wZ5F6Pr7VXBqZy43tbB9VNbQErXdth0kH
UkjRGtv8zTO3MfG8FO1yv+QsWkHAAx73j8jGeSlLrma/KJAaJPpy0b1ud/12yCY4
GkFFhltXuc5f9tx+YvBUprWmZ9pd/tcFC+s/7XtpFU3STdfjlhZ6mzcC0IkxuNO9
HamDmBP6+A==
-----END CERTIFICATE-----
Certificate:
    Data:
        Version: 3 (0x2)
        Serial Number:
            0b:e6:f7:90:1b:23:27:7d:c5:f3:e5:77:3c:5a:50:53:e8:7a:1f:41
        Signature Algorithm: sha256WithRSAEncryption
        Issuer: C = IL, ST = israel, L = Jerusalem, O = NetFree, OU = netfree.link, CN = "NetFree Sign ,Yossi"
        Validity
            Not Before: Aug 12 19:04:19 2019 GMT
            Not After : Jun 20 19:04:19 2029 GMT
        Subject: C = IL, ST = israel, L = Jerusalem, O = NetFree, OU = netfree.link, CN = "NetFree Sign ,Yossi"
        Subject Public Key Info:
            Public Key Algorithm: rsaEncryption
                RSA Public-Key: (4096 bit)
                Modulus:
                    00:df:77:4b:1e:d0:90:4d:cf:65:51:35:37:29:5e:
                    94:ff:3a:a7:5a:00:db:3b:fd:2d:00:50:52:2c:0a:
                    91:3e:10:e2:05:97:f1:39:32:24:bf:ed:f4:05:cc:
                    c5:dc:b1:04:5d:f5:45:d3:58:f0:31:77:da:e8:df:
                    a3:05:90:76:30:11:07:b5:21:63:c5:aa:03:46:25:
                    49:b0:f5:47:09:27:46:b8:2d:fa:0e:49:ab:a2:e9:
                    79:eb:0a:43:63:d3:a7:da:86:0d:65:6a:2c:86:45:
                    f3:fc:41:95:c2:4a:0f:fa:67:35:eb:14:74:64:3e:
                    cc:bc:7a:b2:ba:3f:4e:67:ba:2e:f6:85:37:0e:2f:
                    1e:67:cb:18:f9:ec:06:f7:aa:03:6e:d5:93:3e:a3:
                    d8:06:b2:dd:24:cc:59:2e:c3:31:bf:fe:69:80:46:
                    50:ab:f2:ad:91:9d:e1:63:97:b8:26:3c:1a:40:75:
                    6a:98:2e:10:52:01:44:ac:16:97:8d:1b:29:78:26:
                    2a:a6:d0:49:ba:df:3f:56:5e:e6:2f:24:89:b3:d4:
                    5b:a7:27:1a:44:19:77:9a:34:18:9f:b5:56:38:ac:
                    ea:b5:54:2c:d6:53:15:aa:0f:89:64:ed:64:37:f7:
                    6a:d5:ed:4e:c5:48:d8:c9:22:50:f5:49:ef:28:79:
                    f4:e8:88:14:43:61:3c:ce:50:cd:28:da:8b:1e:1c:
                    49:c3:0c:84:26:a0:28:c2:1c:53:85:df:a9:c8:a6:
                    65:8e:04:9c:ca:93:ab:e1:42:3e:f9:81:3d:d5:30:
                    6d:99:db:90:93:85:7b:c9:5c:b9:e8:8f:93:d5:9c:
                    df:1a:ef:b2:46:c3:20:bb:5f:ab:c7:b4:f8:01:83:
                    3d:ad:59:36:ff:81:91:77:90:1b:46:c4:62:cb:d9:
                    4d:2a:25:05:78:17:c2:05:c9:9a:d9:6b:33:48:d1:
                    dd:5c:c1:00:94:e9:cd:79:98:7a:5f:68:d8:75:a9:
                    25:ca:41:c0:f4:63:b4:d3:d7:3e:b8:fd:6d:70:fa:
                    86:51:5d:cc:c2:1d:b7:c8:31:d4:a4:59:0d:74:01:
                    d1:92:4c:2c:79:48:12:0f:3d:06:00:72:ae:2b:a1:
                    2c:c6:7a:fe:75:0a:70:ae:40:76:3a:3b:87:22:3e:
                    5a:f4:2b:4a:c0:fc:74:cf:5b:b7:78:ea:5d:38:e3:
                    84:db:29:9c:1d:78:2e:fa:50:78:91:7d:01:88:57:
                    a3:56:17:62:74:37:8a:9b:de:89:4b:7f:89:bf:58:
                    ec:16:c3:db:31:13:3a:75:99:65:ce:fe:12:15:16:
                    04:de:10:d8:08:ef:e5:d7:67:d3:7c:c9:13:4f:28:
                    4a:23:c7
                Exponent: 65537 (0x10001)
        X509v3 extensions:
            X509v3 Subject Key Identifier: 
                99:0C:A1:EF:01:18:87:B5:E1:1B:CD:A0:1C:71:DF:19:A5:95:0B:98
            X509v3 Authority Key Identifier: 
                keyid:99:0C:A1:EF:01:18:87:B5:E1:1B:CD:A0:1C:71:DF:19:A5:95:0B:98

            X509v3 Basic Constraints: critical
                CA:TRUE
    Signature Algorithm: sha256WithRSAEncryption
         62:4a:26:84:38:94:11:cc:49:bc:49:af:62:83:99:3c:50:4b:
         a2:71:94:48:b7:48:d1:87:fa:e5:44:46:bd:12:7e:79:f5:7c:
         b1:c1:71:97:96:81:5b:9a:25:1d:95:75:76:e8:15:2d:6d:66:
         27:e8:9d:7b:f3:16:7b:07:4c:7d:8a:cb:49:ab:6d:19:7a:26:
         45:00:1b:ef:f4:38:ee:01:36:ce:2d:aa:3a:e6:6a:30:3c:be:
         bc:0b:c4:7a:ca:74:69:95:55:7b:1c:4f:b3:07:70:94:b7:87:
         f2:18:4b:3f:b9:df:67:f0:36:aa:43:2b:1c:fe:29:b8:d3:23:
         ea:4e:86:c1:29:62:75:45:63:ab:01:d7:72:1e:94:04:a9:d5:
         d5:c4:7d:84:90:74:e5:ca:f7:2b:f5:2b:53:37:8f:e9:17:98:
         95:61:e6:a7:89:79:d9:3d:7a:9a:12:76:28:a9:3f:5c:da:af:
         15:01:67:36:6b:4d:1d:4a:b9:87:ab:0d:93:18:a6:09:d9:c4:
         95:f2:89:64:71:d4:ba:9e:49:c1:b2:ba:10:31:de:99:f1:e6:
         6c:94:69:f0:0b:52:f8:36:ed:56:26:0f:19:23:2f:94:99:c7:
         f4:c4:0c:12:53:76:6c:ec:08:56:22:98:7e:b0:ed:53:73:c8:
         8d:15:22:cb:a2:d3:8a:10:ed:31:8c:1a:d9:f6:27:ab:0d:86:
         4b:01:5c:7a:5c:22:22:02:bc:e0:20:cd:17:3b:0c:cf:29:39:
         30:45:9e:e2:a7:99:f8:99:6c:7b:1b:19:85:25:11:00:bf:08:
         d1:5e:e5:8d:2d:9b:63:b3:e2:1f:0a:c8:63:51:f0:54:ca:66:
         17:9f:9e:38:9a:1a:2e:ea:eb:fd:4d:e1:50:73:12:76:45:4c:
         cd:af:7c:6b:c4:2b:ae:ae:26:94:38:61:81:01:aa:ab:3e:97:
         9c:af:6c:16:97:f8:65:a6:37:30:eb:4e:8d:1d:b0:e5:2f:34:
         54:0c:ee:11:c3:2d:70:67:91:7a:3e:be:d5:5c:1a:99:cb:8d:
         ed:6c:1f:55:35:b4:04:ad:77:6d:87:49:07:52:48:d1:1a:db:
         fc:cd:33:b7:31:f1:bc:14:ed:72:bf:e4:2c:5a:41:c0:03:1e:
         f7:8f:c8:c6:79:29:4b:ae:66:bf:28:90:1a:24:fa:72:d1:bd:
         6e:77:fd:76:c8:26:38:1a:41:45:86:5b:57:b9:ce:5f:f6:dc:
         7e:62:f0:54:a6:b5:a6:67:da:5d:fe:d7:05:0b:eb:3f:ed:7b:
         69:15:4d:d2:4d:d7:e3:96:16:7a:9b:37:02:d0:89:31:b8:d3:
         bd:1d:a9:83:98:13:fa:f8
