-----BEGIN CERTIFICATE-----
MIIF4zCCA8ugAwIBAgIUAkc9yNk/4jz9hPra/7vONeYwrtIwDQYJKoZIhvcNAQEL
BQAwgYAxCzAJBgNVBAYTAklMMQ8wDQYDVQQIDAZpc3JhZWwxEjAQBgNVBAcMCUpl
cnVzYWxlbTEQMA4GA1UECgwHTmV0RnJlZTEVMBMGA1UECwwMbmV0ZnJlZS5saW5r
MSMwIQYDVQQDDBpOZXRGcmVlIFNpZ24sIElCIC0gc3BvdG5ldDAeFw0yMDA1MTMw
ODIzMjJaFw0zMDA1MTEwODIzMjJaMIGAMQswCQYDVQQGEwJJTDEPMA0GA1UECAwG
aXNyYWVsMRIwEAYDVQQHDAlKZXJ1c2FsZW0xEDAOBgNVBAoMB05ldEZyZWUxFTAT
BgNVBAsMDG5ldGZyZWUubGluazEjMCEGA1UEAwwaTmV0RnJlZSBTaWduLCBJQiAt
IHNwb3RuZXQwggIiMA0GCSqGSIb3DQEBAQUAA4ICDwAwggIKAoICAQDNgVcx94Ap
985mKOzFx4/lExkRuI8f9hdAUY9XqE94X7fT8hmCP6pxy/7+JzMjfn/YMmECea51
cuV4ZH+xUZ5WxoQajx/ICJtfaOSV/YIkB40o6JcN95EhKuickdiWnGFjsOZwc1Wj
sqHzjNZJWvV3KnoUGJQfc0F7/Th7HvQoNRqAkUBcXS521m7GqndlmE5zAo7WCD/N
7ggWeO2g8xPOW5YldHZ9mMSZXVYLRn95wrEtBX4SVXqSWdlPAE+m1jbHU2Gu2eM5
LxichbN1FQRL63aeZJjSgOEDaWnASLlqq+rnIWiecoYOGe7qoNl+jGaNAQmg3bq0
nOYouRu7nUGQbOn/eX3BwHEVx9WKiUPHop24NPW70wXXfEU0UNM3FjuU/V/uFA89
RQZRcg28O3SrzLybBGwCo+Kp5Sp54a59/Uw5FvX9OSsHX/QqdMxtFWlXvwqeuV8p
DOlYrAU8WrttR4ruZ3OJ5Rd5w8eu0U2s+dQLrMVgJo2ji2Ji9tBoHId50KVSBDgq
TGs40TB3cnWeO0kf3luz8CgH/+ls08ruDSXpA88FL6adFLfMhfDgBjq9OM0twL31
dVeZvxplqSvLQqiO7uc6s2qzGN/KaMP41eZaWuuiwZtwnFbArg8H2zQDpcLM72Ha
yeqQUAHHIjDx4pmww9yeSk8a1a0Pt71SLwIDAQABo1MwUTAdBgNVHQ4EFgQUU0dF
eW32zoZaL/BW2H++Jj5tyK8wHwYDVR0jBBgwFoAUU0dFeW32zoZaL/BW2H++Jj5t
yK8wDwYDVR0TAQH/BAUwAwEB/zANBgkqhkiG9w0BAQsFAAOCAgEAlwsfMiO4Bg0E
ciN+dAs0+i9grg0CzD2qUpVl6rDN6Vq12DoLgIL/qAH9wiKDPfl9LniwLQfkK/HE
U868x90OOaopBhrO+SPfQX0grz2xYDxnMJXuBKDGr8jHy+QeRq2JN4Sq9BW8Ayfo
9Z3xFpGAf0pohvT5ipeR45u9BZsGBH49iur+snf+t4PL7we7Q4rZ5Z1ZFO0ctlGh
hkS6cGpsmkrH/ysQpD07JmN/Iwklz8xKyiRdRc1qL5BBbLOedawpPNA6PuVBNDg2
jLDZyiirC9zBUTIUohruHQ6lWyHxvx5+BcwmU2LEZMfIVFddQ/KOZ5FcsscDUxvg
YvFdB7iIZNOMBASowXcp7qq6gySkA0qoD+O55nvDocKkqsImuacmOAHmgXfd6zAV
QPo/l/qaMDldpYoKL3WI3GlViTKhBFBKqgb9iR8oKgzMdi+A95XzbHaFFrvG0NaU
Qdiuvp7e09Ja44RAbz2Q4JyDhoo1xxgvfCluUMWWT0AdE9UdV88lpaaD3iPHPOao
E1QFv5hb04gCSU5V+F8a/SULWUitu7NdiBZQRwYbk8xS7Ta8Qcn1/ICJHsx3FKbJ
Z2vhVxCoT22IAdbcd4AL2pJS3EqNZlydfcUg42vCDovKheTWNYQzBW5c0IKPKAq9
Z52Mpo8iek5gwCa8k8r1ZTiyODgDO7Y=
-----END CERTIFICATE-----
Certificate:
    Data:
        Version: 3 (0x2)
        Serial Number:
            02:47:3d:c8:d9:3f:e2:3c:fd:84:fa:da:ff:bb:ce:35:e6:30:ae:d2
        Signature Algorithm: sha256WithRSAEncryption
        Issuer: C = IL, ST = israel, L = Jerusalem, O = NetFree, OU = netfree.link, CN = "NetFree Sign, IB - spotnet"
        Validity
            Not Before: May 13 08:23:22 2020 GMT
            Not After : May 11 08:23:22 2030 GMT
        Subject: C = IL, ST = israel, L = Jerusalem, O = NetFree, OU = netfree.link, CN = "NetFree Sign, IB - spotnet"
        Subject Public Key Info:
            Public Key Algorithm: rsaEncryption
                RSA Public-Key: (4096 bit)
                Modulus:
                    00:cd:81:57:31:f7:80:29:f7:ce:66:28:ec:c5:c7:
                    8f:e5:13:19:11:b8:8f:1f:f6:17:40:51:8f:57:a8:
                    4f:78:5f:b7:d3:f2:19:82:3f:aa:71:cb:fe:fe:27:
                    33:23:7e:7f:d8:32:61:02:79:ae:75:72:e5:78:64:
                    7f:b1:51:9e:56:c6:84:1a:8f:1f:c8:08:9b:5f:68:
                    e4:95:fd:82:24:07:8d:28:e8:97:0d:f7:91:21:2a:
                    e8:9c:91:d8:96:9c:61:63:b0:e6:70:73:55:a3:b2:
                    a1:f3:8c:d6:49:5a:f5:77:2a:7a:14:18:94:1f:73:
                    41:7b:fd:38:7b:1e:f4:28:35:1a:80:91:40:5c:5d:
                    2e:76:d6:6e:c6:aa:77:65:98:4e:73:02:8e:d6:08:
                    3f:cd:ee:08:16:78:ed:a0:f3:13:ce:5b:96:25:74:
                    76:7d:98:c4:99:5d:56:0b:46:7f:79:c2:b1:2d:05:
                    7e:12:55:7a:92:59:d9:4f:00:4f:a6:d6:36:c7:53:
                    61:ae:d9:e3:39:2f:18:9c:85:b3:75:15:04:4b:eb:
                    76:9e:64:98:d2:80:e1:03:69:69:c0:48:b9:6a:ab:
                    ea:e7:21:68:9e:72:86:0e:19:ee:ea:a0:d9:7e:8c:
                    66:8d:01:09:a0:dd:ba:b4:9c:e6:28:b9:1b:bb:9d:
                    41:90:6c:e9:ff:79:7d:c1:c0:71:15:c7:d5:8a:89:
                    43:c7:a2:9d:b8:34:f5:bb:d3:05:d7:7c:45:34:50:
                    d3:37:16:3b:94:fd:5f:ee:14:0f:3d:45:06:51:72:
                    0d:bc:3b:74:ab:cc:bc:9b:04:6c:02:a3:e2:a9:e5:
                    2a:79:e1:ae:7d:fd:4c:39:16:f5:fd:39:2b:07:5f:
                    f4:2a:74:cc:6d:15:69:57:bf:0a:9e:b9:5f:29:0c:
                    e9:58:ac:05:3c:5a:bb:6d:47:8a:ee:67:73:89:e5:
                    17:79:c3:c7:ae:d1:4d:ac:f9:d4:0b:ac:c5:60:26:
                    8d:a3:8b:62:62:f6:d0:68:1c:87:79:d0:a5:52:04:
                    38:2a:4c:6b:38:d1:30:77:72:75:9e:3b:49:1f:de:
                    5b:b3:f0:28:07:ff:e9:6c:d3:ca:ee:0d:25:e9:03:
                    cf:05:2f:a6:9d:14:b7:cc:85:f0:e0:06:3a:bd:38:
                    cd:2d:c0:bd:f5:75:57:99:bf:1a:65:a9:2b:cb:42:
                    a8:8e:ee:e7:3a:b3:6a:b3:18:df:ca:68:c3:f8:d5:
                    e6:5a:5a:eb:a2:c1:9b:70:9c:56:c0:ae:0f:07:db:
                    34:03:a5:c2:cc:ef:61:da:c9:ea:90:50:01:c7:22:
                    30:f1:e2:99:b0:c3:dc:9e:4a:4f:1a:d5:ad:0f:b7:
                    bd:52:2f
                Exponent: 65537 (0x10001)
        X509v3 extensions:
            X509v3 Subject Key Identifier: 
                53:47:45:79:6D:F6:CE:86:5A:2F:F0:56:D8:7F:BE:26:3E:6D:C8:AF
            X509v3 Authority Key Identifier: 
                keyid:53:47:45:79:6D:F6:CE:86:5A:2F:F0:56:D8:7F:BE:26:3E:6D:C8:AF

            X509v3 Basic Constraints: critical
                CA:TRUE
    Signature Algorithm: sha256WithRSAEncryption
         97:0b:1f:32:23:b8:06:0d:04:72:23:7e:74:0b:34:fa:2f:60:
         ae:0d:02:cc:3d:aa:52:95:65:ea:b0:cd:e9:5a:b5:d8:3a:0b:
         80:82:ff:a8:01:fd:c2:22:83:3d:f9:7d:2e:78:b0:2d:07:e4:
         2b:f1:c4:53:ce:bc:c7:dd:0e:39:aa:29:06:1a:ce:f9:23:df:
         41:7d:20:af:3d:b1:60:3c:67:30:95:ee:04:a0:c6:af:c8:c7:
         cb:e4:1e:46:ad:89:37:84:aa:f4:15:bc:03:27:e8:f5:9d:f1:
         16:91:80:7f:4a:68:86:f4:f9:8a:97:91:e3:9b:bd:05:9b:06:
         04:7e:3d:8a:ea:fe:b2:77:fe:b7:83:cb:ef:07:bb:43:8a:d9:
         e5:9d:59:14:ed:1c:b6:51:a1:86:44:ba:70:6a:6c:9a:4a:c7:
         ff:2b:10:a4:3d:3b:26:63:7f:23:09:25:cf:cc:4a:ca:24:5d:
         45:cd:6a:2f:90:41:6c:b3:9e:75:ac:29:3c:d0:3a:3e:e5:41:
         34:38:36:8c:b0:d9:ca:28:ab:0b:dc:c1:51:32:14:a2:1a:ee:
         1d:0e:a5:5b:21:f1:bf:1e:7e:05:cc:26:53:62:c4:64:c7:c8:
         54:57:5d:43:f2:8e:67:91:5c:b2:c7:03:53:1b:e0:62:f1:5d:
         07:b8:88:64:d3:8c:04:04:a8:c1:77:29:ee:aa:ba:83:24:a4:
         03:4a:a8:0f:e3:b9:e6:7b:c3:a1:c2:a4:aa:c2:26:b9:a7:26:
         38:01:e6:81:77:dd:eb:30:15:40:fa:3f:97:fa:9a:30:39:5d:
         a5:8a:0a:2f:75:88:dc:69:55:89:32:a1:04:50:4a:aa:06:fd:
         89:1f:28:2a:0c:cc:76:2f:80:f7:95:f3:6c:76:85:16:bb:c6:
         d0:d6:94:41:d8:ae:be:9e:de:d3:d2:5a:e3:84:40:6f:3d:90:
         e0:9c:83:86:8a:35:c7:18:2f:7c:29:6e:50:c5:96:4f:40:1d:
         13:d5:1d:57:cf:25:a5:a6:83:de:23:c7:3c:e6:a8:13:54:05:
         bf:98:5b:d3:88:02:49:4e:55:f8:5f:1a:fd:25:0b:59:48:ad:
         bb:b3:5d:88:16:50:47:06:1b:93:cc:52:ed:36:bc:41:c9:f5:
         fc:80:89:1e:cc:77:14:a6:c9:67:6b:e1:57:10:a8:4f:6d:88:
         01:d6:dc:77:80:0b:da:92:52:dc:4a:8d:66:5c:9d:7d:c5:20:
         e3:6b:c2:0e:8b:ca:85:e4:d6:35:84:33:05:6e:5c:d0:82:8f:
         28:0a:bd:67:9d:8c:a6:8f:22:7a:4e:60:c0:26:bc:93:ca:f5:
         65:38:b2:38:38:03:3b:b6
