-----BEGIN CERTIFICATE-----
MIIDwzCCAqugAwIBAgIJAJvSq+oh8F6+MA0GCSqGSIb3DQEBCwUAMHgxCzAJBgNV
BAYTAklMMQ8wDQYDVQQIDAZpc3JhZWwxEjAQBgNVBAcMCUplcnVzYWxlbTEQMA4G
A1UECgwHTmV0RnJlZTEVMBMGA1UECwwMbmV0ZnJlZS5saW5rMRswGQYDVQQDDBJO
ZXRGcmVlIFNpZ24gLCAwMTkwHhcNMTYwNDIxMTAyNzA1WhcNMjYwMjI4MTAyNzA1
WjB4MQswCQYDVQQGEwJJTDEPMA0GA1UECAwGaXNyYWVsMRIwEAYDVQQHDAlKZXJ1
c2FsZW0xEDAOBgNVBAoMB05ldEZyZWUxFTATBgNVBAsMDG5ldGZyZWUubGluazEb
MBkGA1UEAwwSTmV0RnJlZSBTaWduICwgMDE5MIIBIjANBgkqhkiG9w0BAQEFAAOC
AQ8AMIIBCgKCAQEA5Wq8zAqW7KGANXfbg9Ck8rx4nPjSkerlSPS/yNEVa/L8HulD
q/GVMRaPaL+RqI4GQt6LeQAmj1FZS01rQQITNRsg6MhNrPhENhg48rjFNIxuEnMv
IfydKGGU2mFXcMtQ9IoRSe4OYE3CKDG0pYzfXhh+TW0H4KKqjO6mjPmMcNjbstpK
vOPFg6Xu5em6hvtQCKC0V551WKWmNQiHOpwRdVIdbWBv3S5xiO5tZVigGpEJ1gLe
8W+Zn2ozcpvh+m38QSZ0A1DVP5Te/7q9L3+BPub8kz3C6GnNK547ucM5HBmOzNwN
luZHVUsehCLc0I965Wd4ZRUXXeeo7BibjRI6mQIDAQABo1AwTjAdBgNVHQ4EFgQU
tLpJD3JS6YPg7VQl2gKrPJByEycwHwYDVR0jBBgwFoAUtLpJD3JS6YPg7VQl2gKr
PJByEycwDAYDVR0TBAUwAwEB/zANBgkqhkiG9w0BAQsFAAOCAQEAThhIvkN/HsFG
7jaHl8yyH3IyvHX+LrItJyhRaQ4xALzGllGCLWvN15e2SWITdXncd4nMU7VRVG1k
CiX6H55Jh1U/DmZHmUI2HBhf/2liFNKXKDOeHg4u+FIzgzuIc0z+RvwPpw9IVLio
Pe6lbaIc5+80kO/mwJwQZoEaqTyL1Ujn69cosiZpiYF3xtxkfBWEWe7XkLunLqqV
DoMEGMq+MUxO+Jngv0j/7dSi1/1eovNnrV4YeF2Flvq2xY1aCKO/cocv5v7w5wEm
8fMFQwKcT7QcCx+/nkx3r0tDHxO7og7xr8petCK+ULqwL28ha4U0l+kLF0ZRiG5H
Ni6Hj6Oi9A==
-----END CERTIFICATE-----
Certificate:
    Data:
        Version: 3 (0x2)
        Serial Number:
            9b:d2:ab:ea:21:f0:5e:be
        Signature Algorithm: sha256WithRSAEncryption
        Issuer: C = IL, ST = israel, L = Jerusalem, O = NetFree, OU = netfree.link, CN = "NetFree Sign , 019"
        Validity
            Not Before: Apr 21 10:27:05 2016 GMT
            Not After : Feb 28 10:27:05 2026 GMT
        Subject: C = IL, ST = israel, L = Jerusalem, O = NetFree, OU = netfree.link, CN = "NetFree Sign , 019"
        Subject Public Key Info:
            Public Key Algorithm: rsaEncryption
                RSA Public-Key: (2048 bit)
                Modulus:
                    00:e5:6a:bc:cc:0a:96:ec:a1:80:35:77:db:83:d0:
                    a4:f2:bc:78:9c:f8:d2:91:ea:e5:48:f4:bf:c8:d1:
                    15:6b:f2:fc:1e:e9:43:ab:f1:95:31:16:8f:68:bf:
                    91:a8:8e:06:42:de:8b:79:00:26:8f:51:59:4b:4d:
                    6b:41:02:13:35:1b:20:e8:c8:4d:ac:f8:44:36:18:
                    38:f2:b8:c5:34:8c:6e:12:73:2f:21:fc:9d:28:61:
                    94:da:61:57:70:cb:50:f4:8a:11:49:ee:0e:60:4d:
                    c2:28:31:b4:a5:8c:df:5e:18:7e:4d:6d:07:e0:a2:
                    aa:8c:ee:a6:8c:f9:8c:70:d8:db:b2:da:4a:bc:e3:
                    c5:83:a5:ee:e5:e9:ba:86:fb:50:08:a0:b4:57:9e:
                    75:58:a5:a6:35:08:87:3a:9c:11:75:52:1d:6d:60:
                    6f:dd:2e:71:88:ee:6d:65:58:a0:1a:91:09:d6:02:
                    de:f1:6f:99:9f:6a:33:72:9b:e1:fa:6d:fc:41:26:
                    74:03:50:d5:3f:94:de:ff:ba:bd:2f:7f:81:3e:e6:
                    fc:93:3d:c2:e8:69:cd:2b:9e:3b:b9:c3:39:1c:19:
                    8e:cc:dc:0d:96:e6:47:55:4b:1e:84:22:dc:d0:8f:
                    7a:e5:67:78:65:15:17:5d:e7:a8:ec:18:9b:8d:12:
                    3a:99
                Exponent: 65537 (0x10001)
        X509v3 extensions:
            X509v3 Subject Key Identifier: 
                B4:BA:49:0F:72:52:E9:83:E0:ED:54:25:DA:02:AB:3C:90:72:13:27
            X509v3 Authority Key Identifier: 
                keyid:B4:BA:49:0F:72:52:E9:83:E0:ED:54:25:DA:02:AB:3C:90:72:13:27

            X509v3 Basic Constraints: 
                CA:TRUE
    Signature Algorithm: sha256WithRSAEncryption
         4e:18:48:be:43:7f:1e:c1:46:ee:36:87:97:cc:b2:1f:72:32:
         bc:75:fe:2e:b2:2d:27:28:51:69:0e:31:00:bc:c6:96:51:82:
         2d:6b:cd:d7:97:b6:49:62:13:75:79:dc:77:89:cc:53:b5:51:
         54:6d:64:0a:25:fa:1f:9e:49:87:55:3f:0e:66:47:99:42:36:
         1c:18:5f:ff:69:62:14:d2:97:28:33:9e:1e:0e:2e:f8:52:33:
         83:3b:88:73:4c:fe:46:fc:0f:a7:0f:48:54:b8:a8:3d:ee:a5:
         6d:a2:1c:e7:ef:34:90:ef:e6:c0:9c:10:66:81:1a:a9:3c:8b:
         d5:48:e7:eb:d7:28:b2:26:69:89:81:77:c6:dc:64:7c:15:84:
         59:ee:d7:90:bb:a7:2e:aa:95:0e:83:04:18:ca:be:31:4c:4e:
         f8:99:e0:bf:48:ff:ed:d4:a2:d7:fd:5e:a2:f3:67:ad:5e:18:
         78:5d:85:96:fa:b6:c5:8d:5a:08:a3:bf:72:87:2f:e6:fe:f0:
         e7:01:26:f1:f3:05:43:02:9c:4f:b4:1c:0b:1f:bf:9e:4c:77:
         af:4b:43:1f:13:bb:a2:0e:f1:af:ca:5e:b4:22:be:50:ba:b0:
         2f:6f:21:6b:85:34:97:e9:0b:17:46:51:88:6e:47:36:2e:87:
         8f:a3:a2:f4
