-----BEGIN CERTIFICATE-----
MIIF3TCCA8WgAwIBAgIUGSL6iZ8Kz/CT3Q1kiYoKK75gxfwwDQYJKoZIhvcNAQEL
BQAwfjELMAkGA1UEBhMCSUwxDzANBgNVBAgMBmlzcmFlbDESMBAGA1UEBwwJSmVy
dXNhbGVtMRAwDgYDVQQKDAdOZXRGcmVlMRUwEwYDVQQLDAxuZXRmcmVlLmxpbmsx
ITAfBgNVBAMMGE5ldEZyZWUgU2lnbiwgSUIgUGFydG5lcjAeFw0yMDA0MjYxNDAz
MzlaFw0zMDA0MjQxNDAzMzlaMH4xCzAJBgNVBAYTAklMMQ8wDQYDVQQIDAZpc3Jh
ZWwxEjAQBgNVBAcMCUplcnVzYWxlbTEQMA4GA1UECgwHTmV0RnJlZTEVMBMGA1UE
CwwMbmV0ZnJlZS5saW5rMSEwHwYDVQQDDBhOZXRGcmVlIFNpZ24sIElCIFBhcnRu
ZXIwggIiMA0GCSqGSIb3DQEBAQUAA4ICDwAwggIKAoICAQCtj4vt55TGvmidDKVj
ktTyTHDKIJShq72REaYGfQhweEEBzMRJzprw8spOtL7LsayfyV7On/9NY7X6p79a
QFJUM/lGMwj5E5gWWDJt5yEe/LEJTHpeZUXIBu78cJR9pZsUP+iWvqj2TgJ2GwoD
WDdSmDWTxY93AP+4BL2421hA/NPjY8xkP+hofupC02WgKIODrC/72FrScQnxnMkD
1Hu9Yw4W4kX8FAhWR3YeXRE0gWV93JTWdBOEzM+7DKn9pdpNZdYXBu2UysNTwrsH
2c31R86et7o2NRhRup5GDBIgaVAi+RjmnTi7GIj5Js3IhIe9hOW5hoSwhNTZiCT+
Ks4zVvdvebA/1XMiQI2HQMQTtLrysYIYjM28YsEWob2JqYQ4eACcmEq2ZZJNMDj4
yGSdJVqZBwnwbK6PmmzQc9n7y+hSUHgg/6x7lPGRfG2XsIhrDrK8nuEU4mRSRlGG
OEL0dC7GY8ywAI30E5nLPtk6vcToaWAz12rC1waI5xyYKgcP8SdOg70SwQj/2/lO
QC5Bzl7581/XKbbLdrsQBXiJ7CN83z046Bs4TqBEqlTzKV257CwLXIW2Kd4nydx+
UuGEqeoNDIIxZCapRQ83mKGJmtGraLN73TLAfZJ2xq3xhMlXejR5JB4JGFmAhGBt
/Qr3MBAM9Lrn2vD0buihAn5D/QIDAQABo1MwUTAdBgNVHQ4EFgQUxgogJN2fOSCA
+Q1tBXEiLQz1clcwHwYDVR0jBBgwFoAUxgogJN2fOSCA+Q1tBXEiLQz1clcwDwYD
VR0TAQH/BAUwAwEB/zANBgkqhkiG9w0BAQsFAAOCAgEAFslaPHqfvOxKDjLHgbNB
Vu+m9/uLfMCMAxo85z8hayEIt7/HEzf03CQji/U3OMJPeah7POKlFkDE9tHxgPmD
Xmw7/gKPolJaPHS9hv484Fd7yu47lKuskYxW3FP9b1s7woO5YmCE8hVSWMLHRz1h
Sr7Mx8zj9/4nT1TF+ZI85TySCjhq+toQCFVmS/1gv2fqz2UoTJVebdJOwNgyiyjB
+y3ekjcXWIVZEsVqNDjM/6C+Uz1LJm+qzAoNOdVc7EIgheUTsNr3te/Zgv0Cg8Eo
d4V+EyaQkElbXKqcafZngxjQqyvEVoHocGDTvf+B3DLaqCIldEyWyusGsC1tyoJR
vQrkwco1VDWl89o3cPOgalI8M7W1nCougNt7PCNO/RjsdOncJE9UUphLHXO1nIgn
mGTVq3ZurDFaIodUNVV4YB+mmJ87ZjIbs8uQUvzEcQnoCmDBg4ABk+e4CJJhzLNP
XW+0L8W37ZyHl5Fx2JPWnZuGhZ214ODQJZ1T164G9dfkULHmd3xxc1hGEfvdybHd
sDIISA+7z1CJXtZYLJ5noOQG7VbrG0KUvO7U897/miXmF6C1rYwpTVlKhEQ8cChU
JnZrCImXL32d8iOzSU4EbLy8Nq89T3fcnWKstGbKpzJdzJ8bJUnveoEEGbo3rP72
86H7Aq+q7qWFjZT/vp9J2Is=
-----END CERTIFICATE-----
Certificate:
    Data:
        Version: 3 (0x2)
        Serial Number:
            19:22:fa:89:9f:0a:cf:f0:93:dd:0d:64:89:8a:0a:2b:be:60:c5:fc
        Signature Algorithm: sha256WithRSAEncryption
        Issuer: C = IL, ST = israel, L = Jerusalem, O = NetFree, OU = netfree.link, CN = "NetFree Sign, IB Partner"
        Validity
            Not Before: Apr 26 14:03:39 2020 GMT
            Not After : Apr 24 14:03:39 2030 GMT
        Subject: C = IL, ST = israel, L = Jerusalem, O = NetFree, OU = netfree.link, CN = "NetFree Sign, IB Partner"
        Subject Public Key Info:
            Public Key Algorithm: rsaEncryption
                RSA Public-Key: (4096 bit)
                Modulus:
                    00:ad:8f:8b:ed:e7:94:c6:be:68:9d:0c:a5:63:92:
                    d4:f2:4c:70:ca:20:94:a1:ab:bd:91:11:a6:06:7d:
                    08:70:78:41:01:cc:c4:49:ce:9a:f0:f2:ca:4e:b4:
                    be:cb:b1:ac:9f:c9:5e:ce:9f:ff:4d:63:b5:fa:a7:
                    bf:5a:40:52:54:33:f9:46:33:08:f9:13:98:16:58:
                    32:6d:e7:21:1e:fc:b1:09:4c:7a:5e:65:45:c8:06:
                    ee:fc:70:94:7d:a5:9b:14:3f:e8:96:be:a8:f6:4e:
                    02:76:1b:0a:03:58:37:52:98:35:93:c5:8f:77:00:
                    ff:b8:04:bd:b8:db:58:40:fc:d3:e3:63:cc:64:3f:
                    e8:68:7e:ea:42:d3:65:a0:28:83:83:ac:2f:fb:d8:
                    5a:d2:71:09:f1:9c:c9:03:d4:7b:bd:63:0e:16:e2:
                    45:fc:14:08:56:47:76:1e:5d:11:34:81:65:7d:dc:
                    94:d6:74:13:84:cc:cf:bb:0c:a9:fd:a5:da:4d:65:
                    d6:17:06:ed:94:ca:c3:53:c2:bb:07:d9:cd:f5:47:
                    ce:9e:b7:ba:36:35:18:51:ba:9e:46:0c:12:20:69:
                    50:22:f9:18:e6:9d:38:bb:18:88:f9:26:cd:c8:84:
                    87:bd:84:e5:b9:86:84:b0:84:d4:d9:88:24:fe:2a:
                    ce:33:56:f7:6f:79:b0:3f:d5:73:22:40:8d:87:40:
                    c4:13:b4:ba:f2:b1:82:18:8c:cd:bc:62:c1:16:a1:
                    bd:89:a9:84:38:78:00:9c:98:4a:b6:65:92:4d:30:
                    38:f8:c8:64:9d:25:5a:99:07:09:f0:6c:ae:8f:9a:
                    6c:d0:73:d9:fb:cb:e8:52:50:78:20:ff:ac:7b:94:
                    f1:91:7c:6d:97:b0:88:6b:0e:b2:bc:9e:e1:14:e2:
                    64:52:46:51:86:38:42:f4:74:2e:c6:63:cc:b0:00:
                    8d:f4:13:99:cb:3e:d9:3a:bd:c4:e8:69:60:33:d7:
                    6a:c2:d7:06:88:e7:1c:98:2a:07:0f:f1:27:4e:83:
                    bd:12:c1:08:ff:db:f9:4e:40:2e:41:ce:5e:f9:f3:
                    5f:d7:29:b6:cb:76:bb:10:05:78:89:ec:23:7c:df:
                    3d:38:e8:1b:38:4e:a0:44:aa:54:f3:29:5d:b9:ec:
                    2c:0b:5c:85:b6:29:de:27:c9:dc:7e:52:e1:84:a9:
                    ea:0d:0c:82:31:64:26:a9:45:0f:37:98:a1:89:9a:
                    d1:ab:68:b3:7b:dd:32:c0:7d:92:76:c6:ad:f1:84:
                    c9:57:7a:34:79:24:1e:09:18:59:80:84:60:6d:fd:
                    0a:f7:30:10:0c:f4:ba:e7:da:f0:f4:6e:e8:a1:02:
                    7e:43:fd
                Exponent: 65537 (0x10001)
        X509v3 extensions:
            X509v3 Subject Key Identifier: 
                C6:0A:20:24:DD:9F:39:20:80:F9:0D:6D:05:71:22:2D:0C:F5:72:57
            X509v3 Authority Key Identifier: 
                keyid:C6:0A:20:24:DD:9F:39:20:80:F9:0D:6D:05:71:22:2D:0C:F5:72:57

            X509v3 Basic Constraints: critical
                CA:TRUE
    Signature Algorithm: sha256WithRSAEncryption
         16:c9:5a:3c:7a:9f:bc:ec:4a:0e:32:c7:81:b3:41:56:ef:a6:
         f7:fb:8b:7c:c0:8c:03:1a:3c:e7:3f:21:6b:21:08:b7:bf:c7:
         13:37:f4:dc:24:23:8b:f5:37:38:c2:4f:79:a8:7b:3c:e2:a5:
         16:40:c4:f6:d1:f1:80:f9:83:5e:6c:3b:fe:02:8f:a2:52:5a:
         3c:74:bd:86:fe:3c:e0:57:7b:ca:ee:3b:94:ab:ac:91:8c:56:
         dc:53:fd:6f:5b:3b:c2:83:b9:62:60:84:f2:15:52:58:c2:c7:
         47:3d:61:4a:be:cc:c7:cc:e3:f7:fe:27:4f:54:c5:f9:92:3c:
         e5:3c:92:0a:38:6a:fa:da:10:08:55:66:4b:fd:60:bf:67:ea:
         cf:65:28:4c:95:5e:6d:d2:4e:c0:d8:32:8b:28:c1:fb:2d:de:
         92:37:17:58:85:59:12:c5:6a:34:38:cc:ff:a0:be:53:3d:4b:
         26:6f:aa:cc:0a:0d:39:d5:5c:ec:42:20:85:e5:13:b0:da:f7:
         b5:ef:d9:82:fd:02:83:c1:28:77:85:7e:13:26:90:90:49:5b:
         5c:aa:9c:69:f6:67:83:18:d0:ab:2b:c4:56:81:e8:70:60:d3:
         bd:ff:81:dc:32:da:a8:22:25:74:4c:96:ca:eb:06:b0:2d:6d:
         ca:82:51:bd:0a:e4:c1:ca:35:54:35:a5:f3:da:37:70:f3:a0:
         6a:52:3c:33:b5:b5:9c:2a:2e:80:db:7b:3c:23:4e:fd:18:ec:
         74:e9:dc:24:4f:54:52:98:4b:1d:73:b5:9c:88:27:98:64:d5:
         ab:76:6e:ac:31:5a:22:87:54:35:55:78:60:1f:a6:98:9f:3b:
         66:32:1b:b3:cb:90:52:fc:c4:71:09:e8:0a:60:c1:83:80:01:
         93:e7:b8:08:92:61:cc:b3:4f:5d:6f:b4:2f:c5:b7:ed:9c:87:
         97:91:71:d8:93:d6:9d:9b:86:85:9d:b5:e0:e0:d0:25:9d:53:
         d7:ae:06:f5:d7:e4:50:b1:e6:77:7c:71:73:58:46:11:fb:dd:
         c9:b1:dd:b0:32:08:48:0f:bb:cf:50:89:5e:d6:58:2c:9e:67:
         a0:e4:06:ed:56:eb:1b:42:94:bc:ee:d4:f3:de:ff:9a:25:e6:
         17:a0:b5:ad:8c:29:4d:59:4a:84:44:3c:70:28:54:26:76:6b:
         08:89:97:2f:7d:9d:f2:23:b3:49:4e:04:6c:bc:bc:36:af:3d:
         4f:77:dc:9d:62:ac:b4:66:ca:a7:32:5d:cc:9f:1b:25:49:ef:
         7a:81:04:19:ba:37:ac:fe:f6:f3:a1:fb:02:af:aa:ee:a5:85:
         8d:94:ff:be:9f:49:d8:8b
