-----BEGIN CERTIFICATE-----
MIIFzzCCA7egAwIBAgIUJd8EwuvF4INK2P9FOVcNOxdqsSgwDQYJKoZIhvcNAQEL
BQAwdzELMAkGA1UEBhMCSUwxDzANBgNVBAgMBmlzcmFlbDESMBAGA1UEBwwJSmVy
dXNhbGVtMRAwDgYDVQQKDAdOZXRGcmVlMRUwEwYDVQQLDAxuZXRmcmVlLmxpbmsx
GjAYBgNVBAMMEU5ldEZyZWUgU2lnbiwgMDE4MB4XDTIxMDUwNDIwNTMxMFoXDTMx
MDUwMjIwNTMxMFowdzELMAkGA1UEBhMCSUwxDzANBgNVBAgMBmlzcmFlbDESMBAG
A1UEBwwJSmVydXNhbGVtMRAwDgYDVQQKDAdOZXRGcmVlMRUwEwYDVQQLDAxuZXRm
cmVlLmxpbmsxGjAYBgNVBAMMEU5ldEZyZWUgU2lnbiwgMDE4MIICIjANBgkqhkiG
9w0BAQEFAAOCAg8AMIICCgKCAgEA1kkqmmuy9XZw0PVC6wwg0BJFs0zWn3IgUYmd
8UXeqfT5Uii/PM4as/Wf3EG7ByRE03njCVTFussYEE3lbHEsjzvcCiDxOkG2HoYf
G69Bt+jxKPPNFIjom3SB3l6S57UyiSHk5TaS/x7NpjUhVeMde/McBqW7FU/eEYgx
PBaqkQNNG0Wqtl6XybwSdsh0vGJ92wzlTwrKhVpAbesu4L9OYVleZtdW7/xtoB1J
aMygZmSEV7v6mW7dMzJdRk8zHCssLJJOgGno/5R/i6/ezGeKu31/FtcpGOw6o8Jc
yBvAOV4oV/S992Y+Uxll33dYNTg7ABYNtYYd864K51T03HJi/pedNd2ALu0Oqb/I
04dYt8ZRVK1I+K1b7LsYzVIM/5YWRS3uCNAfQMsfy/4ECD/IgbXVGI+Z0kHrElgV
uYrOglYrAuFrtG1kV4hoPaGsFjzxM/wrdXaJii0EvbLASeX6TDWOP+5xTZhBesTs
6/gAR/DzOQpdqEIn5v/+foKgaCtBHdFPbayFoywg/Dq9rjbq+7pOiS9XzywHgOZU
Ussq+F0TB0nJ7NkN2Jx5DiAaehOZJpZNWADVheoUehfLGQDA3ffhwi+tdANkgOMc
w6igzwbo1PIrZNcoXDpG+3Dpo8J1+X+nXe4HOKh8K5TbdR9xmUAag3sKZZ5wPjyt
bAq/II0CAwEAAaNTMFEwHQYDVR0OBBYEFK0REcJzkVprhzsKvxjI9w+vlYTiMB8G
A1UdIwQYMBaAFK0REcJzkVprhzsKvxjI9w+vlYTiMA8GA1UdEwEB/wQFMAMBAf8w
DQYJKoZIhvcNAQELBQADggIBALe8h93x+yAkpIeVRcOoNpSnpNiDc7/bY2fJxxWy
Yo4TaT9J+dhlbdedvzgbm0NUcWCKKA0vmR+/PsKYwdJcko1e3kdKTmWGwEBPDRJC
kCGn2ZuXeJokRzyAVKceU7DPHAq7n/C5IJ9ivTMEKYc5SS6WxdxBYePf+tXmPGGi
vYrL1hEgZ+oUx1rXRz7Spr8lUFc7PPvjfPLD9uRoO5K6rdkeHiChuY45Sky/A012
FRhyKR7liZZPtl6QzuLiIDVNcAoJL3SYeaQMmNt6kupQmMcey1RnOwzq56UGOxMr
RSUwgiz56PtQwx6q8R6wqpfJgFipoOzRME6+WgoHPyvIZV9AzNnH4Pv+vfVun8TC
AEvbcyjPyJUL89TqJIgpmlyLRmNETurrGWVgOS4/0rJy5q35I4rDMdrbM8S0AJZy
rSfwwRZXfmxoxYSkx+W6pyIJoj9dtidp1PsKcDoT7CrapmhOKqJzxKdCX3yNQBd0
wWoemiLvBRsCJ1dTZePe470aGmpkL8eLSx68neujrbK9lvDC/GIm97Wx103izZw0
TkkSyB/JtXcqERWYVfAnmhaxIPS1Gwvk+ytBs9kYbNx1cHvPR+JUbax8jmmamKHN
k20mVi+ExBJcyBCs+1gCkKXSlMUpvOSc+tG+nS390JD5pyui1dPp1dlogIX95ad0
H5kG
-----END CERTIFICATE-----
Certificate:
    Data:
        Version: 3 (0x2)
        Serial Number:
            25:df:04:c2:eb:c5:e0:83:4a:d8:ff:45:39:57:0d:3b:17:6a:b1:28
        Signature Algorithm: sha256WithRSAEncryption
        Issuer: C = IL, ST = israel, L = Jerusalem, O = NetFree, OU = netfree.link, CN = "NetFree Sign, 018"
        Validity
            Not Before: May  4 20:53:10 2021 GMT
            Not After : May  2 20:53:10 2031 GMT
        Subject: C = IL, ST = israel, L = Jerusalem, O = NetFree, OU = netfree.link, CN = "NetFree Sign, 018"
        Subject Public Key Info:
            Public Key Algorithm: rsaEncryption
                RSA Public-Key: (4096 bit)
                Modulus:
                    00:d6:49:2a:9a:6b:b2:f5:76:70:d0:f5:42:eb:0c:
                    20:d0:12:45:b3:4c:d6:9f:72:20:51:89:9d:f1:45:
                    de:a9:f4:f9:52:28:bf:3c:ce:1a:b3:f5:9f:dc:41:
                    bb:07:24:44:d3:79:e3:09:54:c5:ba:cb:18:10:4d:
                    e5:6c:71:2c:8f:3b:dc:0a:20:f1:3a:41:b6:1e:86:
                    1f:1b:af:41:b7:e8:f1:28:f3:cd:14:88:e8:9b:74:
                    81:de:5e:92:e7:b5:32:89:21:e4:e5:36:92:ff:1e:
                    cd:a6:35:21:55:e3:1d:7b:f3:1c:06:a5:bb:15:4f:
                    de:11:88:31:3c:16:aa:91:03:4d:1b:45:aa:b6:5e:
                    97:c9:bc:12:76:c8:74:bc:62:7d:db:0c:e5:4f:0a:
                    ca:85:5a:40:6d:eb:2e:e0:bf:4e:61:59:5e:66:d7:
                    56:ef:fc:6d:a0:1d:49:68:cc:a0:66:64:84:57:bb:
                    fa:99:6e:dd:33:32:5d:46:4f:33:1c:2b:2c:2c:92:
                    4e:80:69:e8:ff:94:7f:8b:af:de:cc:67:8a:bb:7d:
                    7f:16:d7:29:18:ec:3a:a3:c2:5c:c8:1b:c0:39:5e:
                    28:57:f4:bd:f7:66:3e:53:19:65:df:77:58:35:38:
                    3b:00:16:0d:b5:86:1d:f3:ae:0a:e7:54:f4:dc:72:
                    62:fe:97:9d:35:dd:80:2e:ed:0e:a9:bf:c8:d3:87:
                    58:b7:c6:51:54:ad:48:f8:ad:5b:ec:bb:18:cd:52:
                    0c:ff:96:16:45:2d:ee:08:d0:1f:40:cb:1f:cb:fe:
                    04:08:3f:c8:81:b5:d5:18:8f:99:d2:41:eb:12:58:
                    15:b9:8a:ce:82:56:2b:02:e1:6b:b4:6d:64:57:88:
                    68:3d:a1:ac:16:3c:f1:33:fc:2b:75:76:89:8a:2d:
                    04:bd:b2:c0:49:e5:fa:4c:35:8e:3f:ee:71:4d:98:
                    41:7a:c4:ec:eb:f8:00:47:f0:f3:39:0a:5d:a8:42:
                    27:e6:ff:fe:7e:82:a0:68:2b:41:1d:d1:4f:6d:ac:
                    85:a3:2c:20:fc:3a:bd:ae:36:ea:fb:ba:4e:89:2f:
                    57:cf:2c:07:80:e6:54:52:cb:2a:f8:5d:13:07:49:
                    c9:ec:d9:0d:d8:9c:79:0e:20:1a:7a:13:99:26:96:
                    4d:58:00:d5:85:ea:14:7a:17:cb:19:00:c0:dd:f7:
                    e1:c2:2f:ad:74:03:64:80:e3:1c:c3:a8:a0:cf:06:
                    e8:d4:f2:2b:64:d7:28:5c:3a:46:fb:70:e9:a3:c2:
                    75:f9:7f:a7:5d:ee:07:38:a8:7c:2b:94:db:75:1f:
                    71:99:40:1a:83:7b:0a:65:9e:70:3e:3c:ad:6c:0a:
                    bf:20:8d
                Exponent: 65537 (0x10001)
        X509v3 extensions:
            X509v3 Subject Key Identifier: 
                AD:11:11:C2:73:91:5A:6B:87:3B:0A:BF:18:C8:F7:0F:AF:95:84:E2
            X509v3 Authority Key Identifier: 
                keyid:AD:11:11:C2:73:91:5A:6B:87:3B:0A:BF:18:C8:F7:0F:AF:95:84:E2

            X509v3 Basic Constraints: critical
                CA:TRUE
    Signature Algorithm: sha256WithRSAEncryption
         b7:bc:87:dd:f1:fb:20:24:a4:87:95:45:c3:a8:36:94:a7:a4:
         d8:83:73:bf:db:63:67:c9:c7:15:b2:62:8e:13:69:3f:49:f9:
         d8:65:6d:d7:9d:bf:38:1b:9b:43:54:71:60:8a:28:0d:2f:99:
         1f:bf:3e:c2:98:c1:d2:5c:92:8d:5e:de:47:4a:4e:65:86:c0:
         40:4f:0d:12:42:90:21:a7:d9:9b:97:78:9a:24:47:3c:80:54:
         a7:1e:53:b0:cf:1c:0a:bb:9f:f0:b9:20:9f:62:bd:33:04:29:
         87:39:49:2e:96:c5:dc:41:61:e3:df:fa:d5:e6:3c:61:a2:bd:
         8a:cb:d6:11:20:67:ea:14:c7:5a:d7:47:3e:d2:a6:bf:25:50:
         57:3b:3c:fb:e3:7c:f2:c3:f6:e4:68:3b:92:ba:ad:d9:1e:1e:
         20:a1:b9:8e:39:4a:4c:bf:03:4d:76:15:18:72:29:1e:e5:89:
         96:4f:b6:5e:90:ce:e2:e2:20:35:4d:70:0a:09:2f:74:98:79:
         a4:0c:98:db:7a:92:ea:50:98:c7:1e:cb:54:67:3b:0c:ea:e7:
         a5:06:3b:13:2b:45:25:30:82:2c:f9:e8:fb:50:c3:1e:aa:f1:
         1e:b0:aa:97:c9:80:58:a9:a0:ec:d1:30:4e:be:5a:0a:07:3f:
         2b:c8:65:5f:40:cc:d9:c7:e0:fb:fe:bd:f5:6e:9f:c4:c2:00:
         4b:db:73:28:cf:c8:95:0b:f3:d4:ea:24:88:29:9a:5c:8b:46:
         63:44:4e:ea:eb:19:65:60:39:2e:3f:d2:b2:72:e6:ad:f9:23:
         8a:c3:31:da:db:33:c4:b4:00:96:72:ad:27:f0:c1:16:57:7e:
         6c:68:c5:84:a4:c7:e5:ba:a7:22:09:a2:3f:5d:b6:27:69:d4:
         fb:0a:70:3a:13:ec:2a:da:a6:68:4e:2a:a2:73:c4:a7:42:5f:
         7c:8d:40:17:74:c1:6a:1e:9a:22:ef:05:1b:02:27:57:53:65:
         e3:de:e3:bd:1a:1a:6a:64:2f:c7:8b:4b:1e:bc:9d:eb:a3:ad:
         b2:bd:96:f0:c2:fc:62:26:f7:b5:b1:d7:4d:e2:cd:9c:34:4e:
         49:12:c8:1f:c9:b5:77:2a:11:15:98:55:f0:27:9a:16:b1:20:
         f4:b5:1b:0b:e4:fb:2b:41:b3:d9:18:6c:dc:75:70:7b:cf:47:
         e2:54:6d:ac:7c:8e:69:9a:98:a1:cd:93:6d:26:56:2f:84:c4:
         12:5c:c8:10:ac:fb:58:02:90:a5:d2:94:c5:29:bc:e4:9c:fa:
         d1:be:9d:2d:fd:d0:90:f9:a7:2b:a2:d5:d3:e9:d5:d9:68:80:
         85:fd:e5:a7:74:1f:99:06
