-----BEGIN CERTIFICATE-----
MIIFzzCCA7egAwIBAgIUERKcb5NZIK+7kIzZeeqoTynDxo8wDQYJKoZIhvcNAQEL
BQAwdzELMAkGA1UEBhMCSUwxDzANBgNVBAgMBmlzcmFlbDESMBAGA1UEBwwJSmVy
dXNhbGVtMRAwDgYDVQQKDAdOZXRGcmVlMRUwEwYDVQQLDAxuZXRmcmVlLmxpbmsx
GjAYBgNVBAMMEU5ldEZyZWUgU2lnbiwgSE9UMB4XDTIyMDkxNDE1MjE0MVoXDTMy
MDkxMTE1MjE0MVowdzELMAkGA1UEBhMCSUwxDzANBgNVBAgMBmlzcmFlbDESMBAG
A1UEBwwJSmVydXNhbGVtMRAwDgYDVQQKDAdOZXRGcmVlMRUwEwYDVQQLDAxuZXRm
cmVlLmxpbmsxGjAYBgNVBAMMEU5ldEZyZWUgU2lnbiwgSE9UMIICIjANBgkqhkiG
9w0BAQEFAAOCAg8AMIICCgKCAgEAtAAmmLun08jzoWMLyC/fzCu9aES7fLWCU2Ur
u3sntuHLDJabIvU0p16hCMC3MVOTKFAKOJ9A+REyOyewQLJ+0Oi0rOPA6jk/+Srj
l69AwzkJYFli7ORClC/N1E2aKWj9evZHHdXeRMs2pklM9eRR+wYQUTQ5bkd0/Lsj
81QDUSzmgX/qkq3Dc4AiSt0gR+rd+c70y8IjVnBSwmHspyGv8Ve9DdRR3U01H8pM
gYpQVrN8BVfRNVpQgpjlKQZKQM1CcLFqUq++fG/QnhgcVuygGnqWAjNCkfbWi7Hq
IMYK5cyA3oLYiBH8gE0Js4ypf/jtFNBTeE7aiNbF6YgD6kPvlBIQ3nWHcvYz83mc
/yI8kDPHPBmNnCTxa46AYRBt3ungIKchSoIP2pfUDcwPI8C2o79ninvYxtwg2FH6
Mbc/hJqaGrTsFgw9rGitniZ4GHVPftW89O3xBENP9QAHimwbG8BCiwuweDu2xPsR
AJJ+a9bFRucDIaacOzrCjuzbXFJIy3KOgghe8V5mYypLHq8/pcDWczL59iWZit+l
2gt+wYIU3HxzC2AqzlBFadI10IlLFolaGyH9hJd5U0kYEXVp2IQV/6PGVhvmJI9y
9n+MqReibwUQVfuEg+l0gblqC2eTGnab5AVoCK/4cK+zxE0+wBpK70X4NtYLf0BO
WItUFK8CAwEAAaNTMFEwHQYDVR0OBBYEFG+/JFFhEinGuN7gWnOZxSMerGmZMB8G
A1UdIwQYMBaAFG+/JFFhEinGuN7gWnOZxSMerGmZMA8GA1UdEwEB/wQFMAMBAf8w
DQYJKoZIhvcNAQELBQADggIBAEVxrI5JmqQi5DhRAVIet41hFWrEIiJwYMbRYhRK
NpW1U4X7OiOm+/8v68oMkh3KHwbpIo48/egUDgv+F7Dzz5NhRgjXQbIW7ixO5+i+
7rW+177oJVvKtpD2NAp4o0Nty826AntDzyulSs7KvoE+Ifwq7iUTNwPmeOBpd7N2
WCZzpjOhhbuG4yYE+K76nZ34C8+7w3488iL8e5RwJQeuvXnEy4NiFzZmsoYqPUBd
HaZIQePxXI3jYi1YdckED3GZwo9VBZkarA5GekBvF9B2z/eKoHfnRrHDuQmBSAY3
+GBfqG6WNpDisKSj4YgeNXkTOZjOCyl/a3nwpLUawxAJyPjtgzc2vRDg3eVHUJNN
HIp60XVRQwwCTH6dHJiHsDCb2/6DgZzcUW20a4u8+zgDN+M+V8DYGjeTN/2X18br
kGN67L+n2krGQmVM4vu+42uOx0SJR/x10D8io7Vl9khWG3pB3GBoQSHivenzNPAW
BfJJG4keyG3EAVPHmyHpjP36NXe8rmimOgVVGDujEz+je+w9L4YQgQg5VfVp3+Pu
Wd7BbSsig+Vqgw1EDksMScLh34ZwniR1w2QL86XT5ExYNXQdo18fVYV0/OyzXKZx
8qnaParnjvguOl0YG4aXh0+72lEeIHXpPMmy6TDDqAOgNlrVbjviBw/J4Nzlty9s
bXLk
-----END CERTIFICATE-----
Certificate:
    Data:
        Version: 3 (0x2)
        Serial Number:
            11:12:9c:6f:93:59:20:af:bb:90:8c:d9:79:ea:a8:4f:29:c3:c6:8f
        Signature Algorithm: sha256WithRSAEncryption
        Issuer: C = IL, ST = israel, L = Jerusalem, O = NetFree, OU = netfree.link, CN = "NetFree Sign, HOT"
        Validity
            Not Before: Sep 14 15:21:41 2022 GMT
            Not After : Sep 11 15:21:41 2032 GMT
        Subject: C = IL, ST = israel, L = Jerusalem, O = NetFree, OU = netfree.link, CN = "NetFree Sign, HOT"
        Subject Public Key Info:
            Public Key Algorithm: rsaEncryption
                RSA Public-Key: (4096 bit)
                Modulus:
                    00:b4:00:26:98:bb:a7:d3:c8:f3:a1:63:0b:c8:2f:
                    df:cc:2b:bd:68:44:bb:7c:b5:82:53:65:2b:bb:7b:
                    27:b6:e1:cb:0c:96:9b:22:f5:34:a7:5e:a1:08:c0:
                    b7:31:53:93:28:50:0a:38:9f:40:f9:11:32:3b:27:
                    b0:40:b2:7e:d0:e8:b4:ac:e3:c0:ea:39:3f:f9:2a:
                    e3:97:af:40:c3:39:09:60:59:62:ec:e4:42:94:2f:
                    cd:d4:4d:9a:29:68:fd:7a:f6:47:1d:d5:de:44:cb:
                    36:a6:49:4c:f5:e4:51:fb:06:10:51:34:39:6e:47:
                    74:fc:bb:23:f3:54:03:51:2c:e6:81:7f:ea:92:ad:
                    c3:73:80:22:4a:dd:20:47:ea:dd:f9:ce:f4:cb:c2:
                    23:56:70:52:c2:61:ec:a7:21:af:f1:57:bd:0d:d4:
                    51:dd:4d:35:1f:ca:4c:81:8a:50:56:b3:7c:05:57:
                    d1:35:5a:50:82:98:e5:29:06:4a:40:cd:42:70:b1:
                    6a:52:af:be:7c:6f:d0:9e:18:1c:56:ec:a0:1a:7a:
                    96:02:33:42:91:f6:d6:8b:b1:ea:20:c6:0a:e5:cc:
                    80:de:82:d8:88:11:fc:80:4d:09:b3:8c:a9:7f:f8:
                    ed:14:d0:53:78:4e:da:88:d6:c5:e9:88:03:ea:43:
                    ef:94:12:10:de:75:87:72:f6:33:f3:79:9c:ff:22:
                    3c:90:33:c7:3c:19:8d:9c:24:f1:6b:8e:80:61:10:
                    6d:de:e9:e0:20:a7:21:4a:82:0f:da:97:d4:0d:cc:
                    0f:23:c0:b6:a3:bf:67:8a:7b:d8:c6:dc:20:d8:51:
                    fa:31:b7:3f:84:9a:9a:1a:b4:ec:16:0c:3d:ac:68:
                    ad:9e:26:78:18:75:4f:7e:d5:bc:f4:ed:f1:04:43:
                    4f:f5:00:07:8a:6c:1b:1b:c0:42:8b:0b:b0:78:3b:
                    b6:c4:fb:11:00:92:7e:6b:d6:c5:46:e7:03:21:a6:
                    9c:3b:3a:c2:8e:ec:db:5c:52:48:cb:72:8e:82:08:
                    5e:f1:5e:66:63:2a:4b:1e:af:3f:a5:c0:d6:73:32:
                    f9:f6:25:99:8a:df:a5:da:0b:7e:c1:82:14:dc:7c:
                    73:0b:60:2a:ce:50:45:69:d2:35:d0:89:4b:16:89:
                    5a:1b:21:fd:84:97:79:53:49:18:11:75:69:d8:84:
                    15:ff:a3:c6:56:1b:e6:24:8f:72:f6:7f:8c:a9:17:
                    a2:6f:05:10:55:fb:84:83:e9:74:81:b9:6a:0b:67:
                    93:1a:76:9b:e4:05:68:08:af:f8:70:af:b3:c4:4d:
                    3e:c0:1a:4a:ef:45:f8:36:d6:0b:7f:40:4e:58:8b:
                    54:14:af
                Exponent: 65537 (0x10001)
        X509v3 extensions:
            X509v3 Subject Key Identifier: 
                6F:BF:24:51:61:12:29:C6:B8:DE:E0:5A:73:99:C5:23:1E:AC:69:99
            X509v3 Authority Key Identifier: 
                keyid:6F:BF:24:51:61:12:29:C6:B8:DE:E0:5A:73:99:C5:23:1E:AC:69:99

            X509v3 Basic Constraints: critical
                CA:TRUE
    Signature Algorithm: sha256WithRSAEncryption
         45:71:ac:8e:49:9a:a4:22:e4:38:51:01:52:1e:b7:8d:61:15:
         6a:c4:22:22:70:60:c6:d1:62:14:4a:36:95:b5:53:85:fb:3a:
         23:a6:fb:ff:2f:eb:ca:0c:92:1d:ca:1f:06:e9:22:8e:3c:fd:
         e8:14:0e:0b:fe:17:b0:f3:cf:93:61:46:08:d7:41:b2:16:ee:
         2c:4e:e7:e8:be:ee:b5:be:d7:be:e8:25:5b:ca:b6:90:f6:34:
         0a:78:a3:43:6d:cb:cd:ba:02:7b:43:cf:2b:a5:4a:ce:ca:be:
         81:3e:21:fc:2a:ee:25:13:37:03:e6:78:e0:69:77:b3:76:58:
         26:73:a6:33:a1:85:bb:86:e3:26:04:f8:ae:fa:9d:9d:f8:0b:
         cf:bb:c3:7e:3c:f2:22:fc:7b:94:70:25:07:ae:bd:79:c4:cb:
         83:62:17:36:66:b2:86:2a:3d:40:5d:1d:a6:48:41:e3:f1:5c:
         8d:e3:62:2d:58:75:c9:04:0f:71:99:c2:8f:55:05:99:1a:ac:
         0e:46:7a:40:6f:17:d0:76:cf:f7:8a:a0:77:e7:46:b1:c3:b9:
         09:81:48:06:37:f8:60:5f:a8:6e:96:36:90:e2:b0:a4:a3:e1:
         88:1e:35:79:13:39:98:ce:0b:29:7f:6b:79:f0:a4:b5:1a:c3:
         10:09:c8:f8:ed:83:37:36:bd:10:e0:dd:e5:47:50:93:4d:1c:
         8a:7a:d1:75:51:43:0c:02:4c:7e:9d:1c:98:87:b0:30:9b:db:
         fe:83:81:9c:dc:51:6d:b4:6b:8b:bc:fb:38:03:37:e3:3e:57:
         c0:d8:1a:37:93:37:fd:97:d7:c6:eb:90:63:7a:ec:bf:a7:da:
         4a:c6:42:65:4c:e2:fb:be:e3:6b:8e:c7:44:89:47:fc:75:d0:
         3f:22:a3:b5:65:f6:48:56:1b:7a:41:dc:60:68:41:21:e2:bd:
         e9:f3:34:f0:16:05:f2:49:1b:89:1e:c8:6d:c4:01:53:c7:9b:
         21:e9:8c:fd:fa:35:77:bc:ae:68:a6:3a:05:55:18:3b:a3:13:
         3f:a3:7b:ec:3d:2f:86:10:81:08:39:55:f5:69:df:e3:ee:59:
         de:c1:6d:2b:22:83:e5:6a:83:0d:44:0e:4b:0c:49:c2:e1:df:
         86:70:9e:24:75:c3:64:0b:f3:a5:d3:e4:4c:58:35:74:1d:a3:
         5f:1f:55:85:74:fc:ec:b3:5c:a6:71:f2:a9:da:3d:aa:e7:8e:
         f8:2e:3a:5d:18:1b:86:97:87:4f:bb:da:51:1e:20:75:e9:3c:
         c9:b2:e9:30:c3:a8:03:a0:36:5a:d5:6e:3b:e2:07:0f:c9:e0:
         dc:e5:b7:2f:6c:6d:72:e4
